(lp0
(S'cppflags'
p1
ccopy_reg
_reconstructor
p2
(cino.utils
SpaceList
p3
c__builtin__
list
p4
(lp5
S'-mmcu=atmega328p'
p6
aS'-DF_CPU=16000000L'
p7
aS'-DARDUINO=105'
p8
aS'-I/usr/share/arduino/hardware/arduino/cores/arduino'
p9
aS'-ffunction-sections'
p10
aS'-fdata-sections'
p11
aS'-g'
p12
aS'-Os'
p13
aS'-w'
p14
aS'-I/usr/share/arduino/hardware/arduino/variants/standard'
p15
aS'-Ilib/OneWire'
p16
aS'-I/usr/share/arduino/hardware/arduino/cores/arduino'
p17
aS'-I/usr/share/arduino/hardware/arduino/cores/arduino/avr-libc'
p18
aS'-Ilib/DallasTemperature'
p19
atp20
Rp21
tp22
a(S'cxx'
p23
S'/usr/share/arduino/hardware/tools/avr/bin/avr-g++'
p24
tp25
a(S'build_dir'
p26
S'.build/uno'
p27
tp28
a(S'avrdude'
p29
S'/usr/share/arduino/hardware/tools/avrdude'
p30
tp31
a(S'ar'
p32
S'/usr/share/arduino/hardware/tools/avr/bin/avr-ar'
p33
tp34
a(S'names'
p35
(dp36
S'cpp'
p37
S'%s.cpp'
p38
sS'obj'
p39
S'%s.o'
p40
sS'lib'
p41
S'lib%s.a'
p42
sS'deps'
p43
S'%s.d'
p44
stp45
a(S'ldflags'
p46
g2
(g3
g4
(lp47
g6
aS'-Wl,-Os'
p48
aS'-Wl,--gc-sections'
p49
atp50
Rp51
tp52
a(S'arduino_lib_version'
p53
g2
(cino.environment
Version
p54
c__builtin__
tuple
p55
(I1
I0
I5
tp56
tp57
Rp58
tp59
a(S'objcopy'
p60
S'/usr/share/arduino/hardware/tools/avr/bin/avr-objcopy'
p61
tp62
a(S'board_models'
p63
cino.environment
BoardModels
p64
((lp65
(lp66
S'uno'
p67
a(dp68
S'build'
p69
(dp70
S'core'
p71
S'arduino'
p72
sS'mcu'
p73
S'atmega328p'
p74
sS'f_cpu'
p75
S'16000000L'
p76
sS'variant'
p77
S'standard'
p78
ssS'bootloader'
p79
(dp80
S'extended_fuses'
p81
S'0x05'
p82
sS'high_fuses'
p83
S'0xde'
p84
sS'low_fuses'
p85
S'0xff'
p86
sS'lock_bits'
p87
S'0x0F'
p88
sS'file'
p89
S'optiboot_atmega328.hex'
p90
sS'path'
p91
S'optiboot'
p92
sS'unlock_bits'
p93
S'0x3F'
p94
ssS'upload'
p95
(dp96
S'speed'
p97
S'115200'
p98
sS'maximum_size'
p99
S'32256'
p100
sS'protocol'
p101
S'arduino'
p102
ssS'name'
p103
S'Arduino Uno'
p104
sS'_coredir'
p105
S'/usr/share/arduino/hardware/arduino'
p106
saa(lp107
S'atmega328'
p108
a(dp109
S'build'
p110
(dp111
S'core'
p112
S'arduino'
p113
sS'mcu'
p114
S'atmega328p'
p115
sS'f_cpu'
p116
S'16000000L'
p117
sS'variant'
p118
S'standard'
p119
ssS'bootloader'
p120
(dp121
S'extended_fuses'
p122
S'0x05'
p123
sS'high_fuses'
p124
S'0xDA'
p125
sS'low_fuses'
p126
S'0xFF'
p127
sS'lock_bits'
p128
S'0x0F'
p129
sS'file'
p130
S'ATmegaBOOT_168_atmega328.hex'
p131
sS'path'
p132
S'atmega'
p133
sS'unlock_bits'
p134
S'0x3F'
p135
ssS'upload'
p136
(dp137
S'speed'
p138
S'57600'
p139
sS'maximum_size'
p140
S'30720'
p141
sS'protocol'
p142
S'arduino'
p143
ssS'name'
p144
S'Arduino Duemilanove w/ ATmega328'
p145
sg105
S'/usr/share/arduino/hardware/arduino'
p146
saa(lp147
S'diecimila'
p148
a(dp149
S'build'
p150
(dp151
S'core'
p152
S'arduino'
p153
sS'mcu'
p154
S'atmega168'
p155
sS'f_cpu'
p156
S'16000000L'
p157
sS'variant'
p158
S'standard'
p159
ssS'bootloader'
p160
(dp161
S'extended_fuses'
p162
S'0x00'
p163
sS'high_fuses'
p164
S'0xdd'
p165
sS'low_fuses'
p166
S'0xff'
p167
sS'lock_bits'
p168
S'0x0F'
p169
sS'file'
p170
S'ATmegaBOOT_168_diecimila.hex'
p171
sS'path'
p172
S'atmega'
p173
sS'unlock_bits'
p174
S'0x3F'
p175
ssS'upload'
p176
(dp177
S'speed'
p178
S'19200'
p179
sS'maximum_size'
p180
S'14336'
p181
sS'protocol'
p182
S'arduino'
p183
ssS'name'
p184
S'Arduino Diecimila or Duemilanove w/ ATmega168'
p185
sg105
S'/usr/share/arduino/hardware/arduino'
p186
saa(lp187
S'nano328'
p188
a(dp189
S'build'
p190
(dp191
S'core'
p192
S'arduino'
p193
sS'mcu'
p194
S'atmega328p'
p195
sS'f_cpu'
p196
S'16000000L'
p197
sS'variant'
p198
S'eightanaloginputs'
p199
ssS'bootloader'
p200
(dp201
S'extended_fuses'
p202
S'0x05'
p203
sS'high_fuses'
p204
S'0xDA'
p205
sS'low_fuses'
p206
S'0xFF'
p207
sS'lock_bits'
p208
S'0x0F'
p209
sS'file'
p210
S'ATmegaBOOT_168_atmega328.hex'
p211
sS'path'
p212
S'atmega'
p213
sS'unlock_bits'
p214
S'0x3F'
p215
ssS'upload'
p216
(dp217
S'speed'
p218
S'57600'
p219
sS'maximum_size'
p220
S'30720'
p221
sS'protocol'
p222
S'arduino'
p223
ssS'name'
p224
S'Arduino Nano w/ ATmega328'
p225
sg105
S'/usr/share/arduino/hardware/arduino'
p226
saa(lp227
S'nano'
p228
a(dp229
S'build'
p230
(dp231
S'core'
p232
S'arduino'
p233
sS'mcu'
p234
S'atmega168'
p235
sS'f_cpu'
p236
S'16000000L'
p237
sS'variant'
p238
S'eightanaloginputs'
p239
ssS'bootloader'
p240
(dp241
S'extended_fuses'
p242
S'0x00'
p243
sS'high_fuses'
p244
S'0xdd'
p245
sS'low_fuses'
p246
S'0xff'
p247
sS'lock_bits'
p248
S'0x0F'
p249
sS'file'
p250
S'ATmegaBOOT_168_diecimila.hex'
p251
sS'path'
p252
S'atmega'
p253
sS'unlock_bits'
p254
S'0x3F'
p255
ssS'upload'
p256
(dp257
S'speed'
p258
S'19200'
p259
sS'maximum_size'
p260
S'14336'
p261
sS'protocol'
p262
S'arduino'
p263
ssS'name'
p264
S'Arduino Nano w/ ATmega168'
p265
sg105
S'/usr/share/arduino/hardware/arduino'
p266
saa(lp267
S'mega2560'
p268
a(dp269
S'build'
p270
(dp271
S'core'
p272
S'arduino'
p273
sS'mcu'
p274
S'atmega2560'
p275
sS'f_cpu'
p276
S'16000000L'
p277
sS'variant'
p278
S'mega'
p279
ssS'bootloader'
p280
(dp281
S'extended_fuses'
p282
S'0xFD'
p283
sS'high_fuses'
p284
S'0xD8'
p285
sS'low_fuses'
p286
S'0xFF'
p287
sS'lock_bits'
p288
S'0x0F'
p289
sS'file'
p290
S'stk500boot_v2_mega2560.hex'
p291
sS'path'
p292
S'stk500v2'
p293
sS'unlock_bits'
p294
S'0x3F'
p295
ssS'upload'
p296
(dp297
S'speed'
p298
S'115200'
p299
sS'maximum_size'
p300
S'258048'
p301
sS'protocol'
p302
S'wiring'
p303
ssS'name'
p304
S'Arduino Mega 2560 or Mega ADK'
p305
sg105
S'/usr/share/arduino/hardware/arduino'
p306
saa(lp307
S'mega'
p308
a(dp309
S'build'
p310
(dp311
S'core'
p312
S'arduino'
p313
sS'mcu'
p314
S'atmega1280'
p315
sS'f_cpu'
p316
S'16000000L'
p317
sS'variant'
p318
S'mega'
p319
ssS'bootloader'
p320
(dp321
S'extended_fuses'
p322
S'0xF5'
p323
sS'high_fuses'
p324
S'0xDA'
p325
sS'low_fuses'
p326
S'0xFF'
p327
sS'lock_bits'
p328
S'0x0F'
p329
sS'file'
p330
S'ATmegaBOOT_168_atmega1280.hex'
p331
sS'path'
p332
S'atmega'
p333
sS'unlock_bits'
p334
S'0x3F'
p335
ssS'upload'
p336
(dp337
S'speed'
p338
S'57600'
p339
sS'maximum_size'
p340
S'126976'
p341
sS'protocol'
p342
S'arduino'
p343
ssS'name'
p344
S'Arduino Mega (ATmega1280)'
p345
sg105
S'/usr/share/arduino/hardware/arduino'
p346
saa(lp347
S'leonardo'
p348
a(dp349
S'build'
p350
(dp351
S'core'
p352
S'arduino'
p353
sS'f_cpu'
p354
S'16000000L'
p355
sS'vid'
p356
S'0x2341'
p357
sS'pid'
p358
S'0x8036'
p359
sS'variant'
p360
S'leonardo'
p361
sS'mcu'
p362
S'atmega32u4'
p363
ssS'bootloader'
p364
(dp365
S'extended_fuses'
p366
S'0xcb'
p367
sS'high_fuses'
p368
S'0xd8'
p369
sS'low_fuses'
p370
S'0xff'
p371
sS'lock_bits'
p372
S'0x2F'
p373
sS'file'
p374
S'Caterina-Leonardo.hex'
p375
sS'path'
p376
S'caterina'
p377
sS'unlock_bits'
p378
S'0x3F'
p379
ssS'upload'
p380
(dp381
S'speed'
p382
S'57600'
p383
sS'maximum_size'
p384
S'28672'
p385
sS'protocol'
p386
S'avr109'
p387
sS'disable_flushing'
p388
S'true'
p389
ssS'name'
p390
S'Arduino Leonardo'
p391
sg105
S'/usr/share/arduino/hardware/arduino'
p392
saa(lp393
S'esplora'
p394
a(dp395
S'build'
p396
(dp397
S'core'
p398
S'arduino'
p399
sS'f_cpu'
p400
S'16000000L'
p401
sS'vid'
p402
S'0x2341'
p403
sS'pid'
p404
S'0x803C'
p405
sS'variant'
p406
S'leonardo'
p407
sS'mcu'
p408
S'atmega32u4'
p409
ssS'bootloader'
p410
(dp411
S'extended_fuses'
p412
S'0xcb'
p413
sS'high_fuses'
p414
S'0xd8'
p415
sS'low_fuses'
p416
S'0xff'
p417
sS'lock_bits'
p418
S'0x2F'
p419
sS'file'
p420
S'Caterina-Esplora.hex'
p421
sS'path'
p422
S'caterina'
p423
sS'unlock_bits'
p424
S'0x3F'
p425
ssS'upload'
p426
(dp427
S'speed'
p428
S'57600'
p429
sS'maximum_size'
p430
S'28672'
p431
sS'protocol'
p432
S'avr109'
p433
sS'disable_flushing'
p434
S'true'
p435
ssS'name'
p436
S'Arduino Esplora'
p437
sg105
S'/usr/share/arduino/hardware/arduino'
p438
saa(lp439
S'micro'
p440
a(dp441
S'build'
p442
(dp443
S'core'
p444
S'arduino'
p445
sS'f_cpu'
p446
S'16000000L'
p447
sS'vid'
p448
S'0x2341'
p449
sS'pid'
p450
S'0x8037'
p451
sS'variant'
p452
S'micro'
p453
sS'mcu'
p454
S'atmega32u4'
p455
ssS'bootloader'
p456
(dp457
S'extended_fuses'
p458
S'0xcb'
p459
sS'high_fuses'
p460
S'0xd8'
p461
sS'low_fuses'
p462
S'0xff'
p463
sS'lock_bits'
p464
S'0x2F'
p465
sS'file'
p466
S'Caterina-Micro.hex'
p467
sS'path'
p468
S'caterina'
p469
sS'unlock_bits'
p470
S'0x3F'
p471
ssS'upload'
p472
(dp473
S'speed'
p474
S'57600'
p475
sS'maximum_size'
p476
S'28672'
p477
sS'protocol'
p478
S'avr109'
p479
sS'disable_flushing'
p480
S'true'
p481
ssS'name'
p482
S'Arduino Micro'
p483
sg105
S'/usr/share/arduino/hardware/arduino'
p484
saa(lp485
S'mini328'
p486
a(dp487
S'build'
p488
(dp489
S'core'
p490
S'arduino'
p491
sS'mcu'
p492
S'atmega328p'
p493
sS'f_cpu'
p494
S'16000000L'
p495
sS'variant'
p496
S'eightanaloginputs'
p497
ssS'bootloader'
p498
(dp499
S'extended_fuses'
p500
S'0x05'
p501
sS'high_fuses'
p502
S'0xd8'
p503
sS'low_fuses'
p504
S'0xff'
p505
sS'lock_bits'
p506
S'0x0F'
p507
sS'file'
p508
S'optiboot_atmega328-Mini.hex'
p509
sS'path'
p510
S'optiboot'
p511
sS'unlock_bits'
p512
S'0x3F'
p513
ssS'upload'
p514
(dp515
S'speed'
p516
S'115200'
p517
sS'maximum_size'
p518
S'28672'
p519
sS'protocol'
p520
S'arduino'
p521
ssS'name'
p522
S'Arduino Mini w/ ATmega328'
p523
sg105
S'/usr/share/arduino/hardware/arduino'
p524
saa(lp525
S'mini'
p526
a(dp527
S'build'
p528
(dp529
S'core'
p530
S'arduino'
p531
sS'mcu'
p532
S'atmega168'
p533
sS'f_cpu'
p534
S'16000000L'
p535
sS'variant'
p536
S'eightanaloginputs'
p537
ssS'bootloader'
p538
(dp539
S'extended_fuses'
p540
S'0x00'
p541
sS'high_fuses'
p542
S'0xdd'
p543
sS'low_fuses'
p544
S'0xff'
p545
sS'lock_bits'
p546
S'0x0F'
p547
sS'file'
p548
S'ATmegaBOOT_168_ng.hex'
p549
sS'path'
p550
S'atmega'
p551
sS'unlock_bits'
p552
S'0x3F'
p553
ssS'upload'
p554
(dp555
S'speed'
p556
S'19200'
p557
sS'maximum_size'
p558
S'14336'
p559
sS'protocol'
p560
S'arduino'
p561
ssS'name'
p562
S'Arduino Mini w/ ATmega168'
p563
sg105
S'/usr/share/arduino/hardware/arduino'
p564
saa(lp565
S'ethernet'
p566
a(dp567
S'build'
p568
(dp569
S'f_cpu'
p570
S'16000000L'
p571
sS'mcu'
p572
S'atmega328p'
p573
sS'variant'
p574
S'standard'
p575
sS'core'
p576
S'arduino'
p577
ssS'bootloader'
p578
(dp579
S'extended_fuses'
p580
S'0x05'
p581
sS'high_fuses'
p582
S'0xde'
p583
sS'low_fuses'
p584
S'0xff'
p585
sS'lock_bits'
p586
S'0x0F'
p587
sS'file'
p588
S'optiboot_atmega328.hex'
p589
sS'path'
p590
S'optiboot'
p591
sS'unlock_bits'
p592
S'0x3F'
p593
ssS'upload'
p594
(dp595
S'speed'
p596
S'115200'
p597
sS'maximum_size'
p598
S'32256'
p599
sS'protocol'
p600
S'arduino'
p601
ssS'name'
p602
S'Arduino Ethernet'
p603
sg105
S'/usr/share/arduino/hardware/arduino'
p604
saa(lp605
S'fio'
p606
a(dp607
S'build'
p608
(dp609
S'core'
p610
S'arduino'
p611
sS'mcu'
p612
S'atmega328p'
p613
sS'f_cpu'
p614
S'8000000L'
p615
sS'variant'
p616
S'eightanaloginputs'
p617
ssS'bootloader'
p618
(dp619
S'extended_fuses'
p620
S'0x05'
p621
sS'high_fuses'
p622
S'0xDA'
p623
sS'low_fuses'
p624
S'0xFF'
p625
sS'lock_bits'
p626
S'0x0F'
p627
sS'file'
p628
S'ATmegaBOOT_168_atmega328_pro_8MHz.hex'
p629
sS'path'
p630
S'arduino:atmega'
p631
sS'unlock_bits'
p632
S'0x3F'
p633
ssS'upload'
p634
(dp635
S'speed'
p636
S'57600'
p637
sS'maximum_size'
p638
S'30720'
p639
sS'protocol'
p640
S'arduino'
p641
ssS'name'
p642
S'Arduino Fio'
p643
sg105
S'/usr/share/arduino/hardware/arduino'
p644
saa(lp645
S'bt328'
p646
a(dp647
S'build'
p648
(dp649
S'core'
p650
S'arduino'
p651
sS'mcu'
p652
S'atmega328p'
p653
sS'f_cpu'
p654
S'16000000L'
p655
sS'variant'
p656
S'eightanaloginputs'
p657
ssS'bootloader'
p658
(dp659
S'extended_fuses'
p660
S'0x05'
p661
sS'high_fuses'
p662
S'0xd8'
p663
sS'low_fuses'
p664
S'0xff'
p665
sS'lock_bits'
p666
S'0x0F'
p667
sS'file'
p668
S'ATmegaBOOT_168_atmega328_bt.hex'
p669
sS'path'
p670
S'bt'
p671
sS'unlock_bits'
p672
S'0x3F'
p673
ssS'upload'
p674
(dp675
S'speed'
p676
S'19200'
p677
sS'maximum_size'
p678
S'28672'
p679
sS'protocol'
p680
S'arduino'
p681
sS'disable_flushing'
p682
S'true'
p683
ssS'name'
p684
S'Arduino BT w/ ATmega328'
p685
sg105
S'/usr/share/arduino/hardware/arduino'
p686
saa(lp687
S'bt'
p688
a(dp689
S'build'
p690
(dp691
S'core'
p692
S'arduino'
p693
sS'mcu'
p694
S'atmega168'
p695
sS'f_cpu'
p696
S'16000000L'
p697
sS'variant'
p698
S'eightanaloginputs'
p699
ssS'bootloader'
p700
(dp701
S'extended_fuses'
p702
S'0x00'
p703
sS'high_fuses'
p704
S'0xdd'
p705
sS'low_fuses'
p706
S'0xff'
p707
sS'lock_bits'
p708
S'0x0F'
p709
sS'file'
p710
S'ATmegaBOOT_168.hex'
p711
sS'path'
p712
S'bt'
p713
sS'unlock_bits'
p714
S'0x3F'
p715
ssS'upload'
p716
(dp717
S'speed'
p718
S'19200'
p719
sS'maximum_size'
p720
S'14336'
p721
sS'protocol'
p722
S'arduino'
p723
sS'disable_flushing'
p724
S'true'
p725
ssS'name'
p726
S'Arduino BT w/ ATmega168'
p727
sg105
S'/usr/share/arduino/hardware/arduino'
p728
saa(lp729
S'LilyPadUSB'
p730
a(dp731
S'build'
p732
(dp733
S'core'
p734
S'arduino'
p735
sS'f_cpu'
p736
S'8000000L'
p737
sS'vid'
p738
S'0x1B4F'
p739
sS'pid'
p740
S'0x9208'
p741
sS'variant'
p742
S'leonardo'
p743
sS'mcu'
p744
S'atmega32u4'
p745
ssS'bootloader'
p746
(dp747
S'extended_fuses'
p748
S'0xce'
p749
sS'high_fuses'
p750
S'0xd8'
p751
sS'low_fuses'
p752
S'0xff'
p753
sS'lock_bits'
p754
S'0x2F'
p755
sS'file'
p756
S'Caterina-LilyPadUSB.hex'
p757
sS'path'
p758
S'caterina-LilyPadUSB'
p759
sS'unlock_bits'
p760
S'0x3F'
p761
ssS'upload'
p762
(dp763
S'speed'
p764
S'57600'
p765
sS'maximum_size'
p766
S'28672'
p767
sS'protocol'
p768
S'avr109'
p769
sS'disable_flushing'
p770
S'true'
p771
ssS'name'
p772
S'LilyPad Arduino USB'
p773
sg105
S'/usr/share/arduino/hardware/arduino'
p774
saa(lp775
S'lilypad328'
p776
a(dp777
S'build'
p778
(dp779
S'core'
p780
S'arduino'
p781
sS'mcu'
p782
S'atmega328p'
p783
sS'f_cpu'
p784
S'8000000L'
p785
sS'variant'
p786
S'standard'
p787
ssS'bootloader'
p788
(dp789
S'extended_fuses'
p790
S'0x05'
p791
sS'high_fuses'
p792
S'0xDA'
p793
sS'low_fuses'
p794
S'0xFF'
p795
sS'lock_bits'
p796
S'0x0F'
p797
sS'file'
p798
S'ATmegaBOOT_168_atmega328_pro_8MHz.hex'
p799
sS'path'
p800
S'atmega'
p801
sS'unlock_bits'
p802
S'0x3F'
p803
ssS'upload'
p804
(dp805
S'speed'
p806
S'57600'
p807
sS'maximum_size'
p808
S'30720'
p809
sS'protocol'
p810
S'arduino'
p811
ssS'name'
p812
S'LilyPad Arduino w/ ATmega328'
p813
sg105
S'/usr/share/arduino/hardware/arduino'
p814
saa(lp815
S'lilypad'
p816
a(dp817
S'build'
p818
(dp819
S'core'
p820
S'arduino'
p821
sS'mcu'
p822
S'atmega168'
p823
sS'f_cpu'
p824
S'8000000L'
p825
sS'variant'
p826
S'standard'
p827
ssS'bootloader'
p828
(dp829
S'extended_fuses'
p830
S'0x00'
p831
sS'high_fuses'
p832
S'0xdd'
p833
sS'low_fuses'
p834
S'0xe2'
p835
sS'lock_bits'
p836
S'0x0F'
p837
sS'file'
p838
S'LilyPadBOOT_168.hex'
p839
sS'path'
p840
S'lilypad'
p841
sS'unlock_bits'
p842
S'0x3F'
p843
ssS'upload'
p844
(dp845
S'speed'
p846
S'19200'
p847
sS'maximum_size'
p848
S'14336'
p849
sS'protocol'
p850
S'arduino'
p851
ssS'name'
p852
S'LilyPad Arduino w/ ATmega168'
p853
sg105
S'/usr/share/arduino/hardware/arduino'
p854
saa(lp855
S'pro5v328'
p856
a(dp857
S'build'
p858
(dp859
S'core'
p860
S'arduino'
p861
sS'mcu'
p862
S'atmega328p'
p863
sS'f_cpu'
p864
S'16000000L'
p865
sS'variant'
p866
S'standard'
p867
ssS'bootloader'
p868
(dp869
S'extended_fuses'
p870
S'0x05'
p871
sS'high_fuses'
p872
S'0xDA'
p873
sS'low_fuses'
p874
S'0xFF'
p875
sS'lock_bits'
p876
S'0x0F'
p877
sS'file'
p878
S'ATmegaBOOT_168_atmega328.hex'
p879
sS'path'
p880
S'atmega'
p881
sS'unlock_bits'
p882
S'0x3F'
p883
ssS'upload'
p884
(dp885
S'speed'
p886
S'57600'
p887
sS'maximum_size'
p888
S'30720'
p889
sS'protocol'
p890
S'arduino'
p891
ssS'name'
p892
S'Arduino Pro or Pro Mini (5V, 16 MHz) w/ ATmega328'
p893
sg105
S'/usr/share/arduino/hardware/arduino'
p894
saa(lp895
S'pro5v'
p896
a(dp897
S'build'
p898
(dp899
S'core'
p900
S'arduino'
p901
sS'mcu'
p902
S'atmega168'
p903
sS'f_cpu'
p904
S'16000000L'
p905
sS'variant'
p906
S'standard'
p907
ssS'bootloader'
p908
(dp909
S'extended_fuses'
p910
S'0x00'
p911
sS'high_fuses'
p912
S'0xdd'
p913
sS'low_fuses'
p914
S'0xff'
p915
sS'lock_bits'
p916
S'0x0F'
p917
sS'file'
p918
S'ATmegaBOOT_168_diecimila.hex'
p919
sS'path'
p920
S'atmega'
p921
sS'unlock_bits'
p922
S'0x3F'
p923
ssS'upload'
p924
(dp925
S'speed'
p926
S'19200'
p927
sS'maximum_size'
p928
S'14336'
p929
sS'protocol'
p930
S'arduino'
p931
ssS'name'
p932
S'Arduino Pro or Pro Mini (5V, 16 MHz) w/ ATmega168'
p933
sg105
S'/usr/share/arduino/hardware/arduino'
p934
saa(lp935
S'pro328'
p936
a(dp937
S'build'
p938
(dp939
S'core'
p940
S'arduino'
p941
sS'mcu'
p942
S'atmega328p'
p943
sS'f_cpu'
p944
S'8000000L'
p945
sS'variant'
p946
S'standard'
p947
ssS'bootloader'
p948
(dp949
S'extended_fuses'
p950
S'0x05'
p951
sS'high_fuses'
p952
S'0xDA'
p953
sS'low_fuses'
p954
S'0xFF'
p955
sS'lock_bits'
p956
S'0x0F'
p957
sS'file'
p958
S'ATmegaBOOT_168_atmega328_pro_8MHz.hex'
p959
sS'path'
p960
S'atmega'
p961
sS'unlock_bits'
p962
S'0x3F'
p963
ssS'upload'
p964
(dp965
S'speed'
p966
S'57600'
p967
sS'maximum_size'
p968
S'30720'
p969
sS'protocol'
p970
S'arduino'
p971
ssS'name'
p972
S'Arduino Pro or Pro Mini (3.3V, 8 MHz) w/ ATmega328'
p973
sg105
S'/usr/share/arduino/hardware/arduino'
p974
saa(lp975
S'pro'
p976
a(dp977
S'build'
p978
(dp979
S'core'
p980
S'arduino'
p981
sS'mcu'
p982
S'atmega168'
p983
sS'f_cpu'
p984
S'8000000L'
p985
sS'variant'
p986
S'standard'
p987
ssS'bootloader'
p988
(dp989
S'extended_fuses'
p990
S'0x00'
p991
sS'high_fuses'
p992
S'0xdd'
p993
sS'low_fuses'
p994
S'0xc6'
p995
sS'lock_bits'
p996
S'0x0F'
p997
sS'file'
p998
S'ATmegaBOOT_168_pro_8MHz.hex'
p999
sS'path'
p1000
S'atmega'
p1001
sS'unlock_bits'
p1002
S'0x3F'
p1003
ssS'upload'
p1004
(dp1005
S'speed'
p1006
S'19200'
p1007
sS'maximum_size'
p1008
S'14336'
p1009
sS'protocol'
p1010
S'arduino'
p1011
ssS'name'
p1012
S'Arduino Pro or Pro Mini (3.3V, 8 MHz) w/ ATmega168'
p1013
sg105
S'/usr/share/arduino/hardware/arduino'
p1014
saa(lp1015
S'atmega168'
p1016
a(dp1017
S'build'
p1018
(dp1019
S'core'
p1020
S'arduino'
p1021
sS'mcu'
p1022
S'atmega168'
p1023
sS'f_cpu'
p1024
S'16000000L'
p1025
sS'variant'
p1026
S'standard'
p1027
ssS'bootloader'
p1028
(dp1029
S'extended_fuses'
p1030
S'0x00'
p1031
sS'high_fuses'
p1032
S'0xdd'
p1033
sS'low_fuses'
p1034
S'0xff'
p1035
sS'lock_bits'
p1036
S'0x0F'
p1037
sS'file'
p1038
S'ATmegaBOOT_168_ng.hex'
p1039
sS'path'
p1040
S'atmega'
p1041
sS'unlock_bits'
p1042
S'0x3F'
p1043
ssS'upload'
p1044
(dp1045
S'speed'
p1046
S'19200'
p1047
sS'maximum_size'
p1048
S'14336'
p1049
sS'protocol'
p1050
S'arduino'
p1051
ssS'name'
p1052
S'Arduino NG or older w/ ATmega168'
p1053
sg105
S'/usr/share/arduino/hardware/arduino'
p1054
saa(lp1055
S'atmega8'
p1056
a(dp1057
S'build'
p1058
(dp1059
S'core'
p1060
S'arduino'
p1061
sS'mcu'
p1062
S'atmega8'
p1063
sS'f_cpu'
p1064
S'16000000L'
p1065
sS'variant'
p1066
S'standard'
p1067
ssS'bootloader'
p1068
(dp1069
S'high_fuses'
p1070
S'0xca'
p1071
sS'low_fuses'
p1072
S'0xdf'
p1073
sS'lock_bits'
p1074
S'0x0F'
p1075
sS'file'
p1076
S'ATmegaBOOT-prod-firmware-2009-11-07.hex'
p1077
sS'path'
p1078
S'atmega8'
p1079
sS'unlock_bits'
p1080
S'0x3F'
p1081
ssS'upload'
p1082
(dp1083
S'speed'
p1084
S'19200'
p1085
sS'maximum_size'
p1086
S'7168'
p1087
sS'protocol'
p1088
S'arduino'
p1089
ssS'name'
p1090
S'Arduino NG or older w/ ATmega8'
p1091
sg105
S'/usr/share/arduino/hardware/arduino'
p1092
saa(lp1093
S'robotControl'
p1094
a(dp1095
S'build'
p1096
(dp1097
S'core'
p1098
S'robot'
p1099
sS'f_cpu'
p1100
S'16000000L'
p1101
sS'vid'
p1102
S'0x2341'
p1103
sS'pid'
p1104
S'0x8038'
p1105
sS'variant'
p1106
S'robot_control'
p1107
sS'mcu'
p1108
S'atmega32u4'
p1109
ssS'bootloader'
p1110
(dp1111
S'extended_fuses'
p1112
S'0xcb'
p1113
sS'high_fuses'
p1114
S'0xd8'
p1115
sS'low_fuses'
p1116
S'0xff'
p1117
sS'lock_bits'
p1118
S'0x2F'
p1119
sS'file'
p1120
S'Caterina-Robot-Control.hex'
p1121
sS'path'
p1122
S'caterina-Arduino_Robot'
p1123
sS'unlock_bits'
p1124
S'0x3F'
p1125
ssS'upload'
p1126
(dp1127
S'speed'
p1128
S'57600'
p1129
sS'maximum_size'
p1130
S'28672'
p1131
sS'protocol'
p1132
S'avr109'
p1133
sS'disable_flushing'
p1134
S'true'
p1135
ssS'name'
p1136
S'Arduino Robot Control'
p1137
sg105
S'/usr/share/arduino/hardware/arduino'
p1138
saa(lp1139
S'robotMotor'
p1140
a(dp1141
S'build'
p1142
(dp1143
S'core'
p1144
S'robot'
p1145
sS'f_cpu'
p1146
S'16000000L'
p1147
sS'vid'
p1148
S'0x2341'
p1149
sS'pid'
p1150
S'0x8039'
p1151
sS'variant'
p1152
S'robot_motor'
p1153
sS'mcu'
p1154
S'atmega32u4'
p1155
ssS'bootloader'
p1156
(dp1157
S'extended_fuses'
p1158
S'0xcb'
p1159
sS'high_fuses'
p1160
S'0xd8'
p1161
sS'low_fuses'
p1162
S'0xff'
p1163
sS'lock_bits'
p1164
S'0x2F'
p1165
sS'file'
p1166
S'Caterina-Robot-Motor.hex'
p1167
sS'path'
p1168
S'caterina-Arduino_Robot'
p1169
sS'unlock_bits'
p1170
S'0x3F'
p1171
ssS'upload'
p1172
(dp1173
S'speed'
p1174
S'57600'
p1175
sS'maximum_size'
p1176
S'28672'
p1177
sS'protocol'
p1178
S'avr109'
p1179
sS'disable_flushing'
p1180
S'true'
p1181
ssS'name'
p1182
S'Arduino Robot Motor'
p1183
sg105
S'/usr/share/arduino/hardware/arduino'
p1184
saatp1185
Rp1186
(dp1187
S'default'
p1188
S'uno'
p1189
sbtp1190
a(S'used_libs'
p1191
(lp1192
S'lib/OneWire'
p1193
aS'/usr/share/arduino/hardware/arduino/cores/arduino'
p1194
aS'lib/DallasTemperature'
p1195
atp1196
a(S'make'
p1197
S'/usr/share/arduino/hardware/tools/avr/bin/make'
p1198
tp1199
a(S'arduino_libraries_dir'
p1200
S'/usr/share/arduino/libraries'
p1201
tp1202
a(S'cc'
p1203
S'/usr/share/arduino/hardware/tools/avr/bin/avr-gcc'
p1204
tp1205
a(S'cflags'
p1206
g2
(g3
g4
(lp1207
tp1208
Rp1209
tp1210
a(S'cxxflags'
p1211
g2
(g3
g4
(lp1212
S'-fno-exceptions'
p1213
atp1214
Rp1215
tp1216
a(S'arduino_variants_dir'
p1217
S'/usr/share/arduino/hardware/arduino/variants'
p1218
tp1219
a(S'stty'
p1220
S'/bin/stty'
p1221
tp1222
a(S'version.txt'
p1223
S'/usr/share/arduino/lib/version.txt'
p1224
tp1225
a(S'arduino_core_dir'
p1226
g1194
tp1227
a(S'boards.txt'
p1228
(lp1229
S'/usr/share/arduino/hardware/arduino/boards.txt'
p1230
atp1231
a(S'avrdude.conf'
p1232
S'/usr/share/arduino/hardware/tools/avrdude.conf'
p1233
tp1234
a(S'deps'
p1235
g2
(g3
g4
(lp1236
S'.build/uno/src/dependencies.d'
p1237
aS'.build/uno/OneWire/dependencies.d'
p1238
aS'.build/uno/arduino/dependencies.d'
p1239
aS'.build/uno/DallasTemperature/dependencies.d'
p1240
atp1241
Rp1242
tp1243
a.