(lp0
(S'cppflags'
p1
ccopy_reg
_reconstructor
p2
(cino.utils
SpaceList
p3
c__builtin__
list
p4
(lp5
S'-mmcu=atmega328p'
p6
aS'-DF_CPU=16000000L'
p7
aS'-DARDUINO=105'
p8
aS'-I/usr/share/arduino/hardware/arduino/cores/arduino'
p9
aS'-ffunction-sections'
p10
aS'-fdata-sections'
p11
aS'-g'
p12
aS'-Os'
p13
aS'-w'
p14
aS'-I/usr/share/arduino/hardware/arduino/variants/standard'
p15
aS'-Ilib/OneWire'
p16
aS'-I/usr/share/arduino/hardware/arduino/cores/arduino'
p17
aS'-I/usr/share/arduino/hardware/arduino/cores/arduino/avr-libc'
p18
aS'-Ilib/DallasTemperature'
p19
atp20
Rp21
tp22
a(S'arduino_variants_dir'
p23
S'/usr/share/arduino/hardware/arduino/variants'
p24
tp25
a(S'version.txt'
p26
S'/usr/share/arduino/lib/version.txt'
p27
tp28
a(S'used_libs'
p29
(lp30
S'lib/OneWire'
p31
aS'/usr/share/arduino/hardware/arduino/cores/arduino'
p32
aS'lib/DallasTemperature'
p33
atp34
a(S'cxx'
p35
S'/usr/share/arduino/hardware/tools/avr/bin/avr-g++'
p36
tp37
a(S'make'
p38
S'/usr/share/arduino/hardware/tools/avr/bin/make'
p39
tp40
a(S'build_dir'
p41
S'.build/uno'
p42
tp43
a(S'arduino_core_dir'
p44
g32
tp45
a(S'boards.txt'
p46
(lp47
S'/usr/share/arduino/hardware/arduino/boards.txt'
p48
atp49
a(S'cxxflags'
p50
g2
(g3
g4
(lp51
S'-fno-exceptions'
p52
atp53
Rp54
tp55
a(S'cc'
p56
S'/usr/share/arduino/hardware/tools/avr/bin/avr-gcc'
p57
tp58
a(S'deps'
p59
g2
(g3
g4
(lp60
S'.build/uno/src/dependencies.d'
p61
aS'.build/uno/OneWire/dependencies.d'
p62
aS'.build/uno/arduino/dependencies.d'
p63
aS'.build/uno/DallasTemperature/dependencies.d'
p64
atp65
Rp66
tp67
a(S'ar'
p68
S'/usr/share/arduino/hardware/tools/avr/bin/avr-ar'
p69
tp70
a(S'names'
p71
(dp72
S'cpp'
p73
S'%s.cpp'
p74
sS'obj'
p75
S'%s.o'
p76
sS'deps'
p77
S'%s.d'
p78
sS'lib'
p79
S'lib%s.a'
p80
stp81
a(S'cflags'
p82
g2
(g3
g4
(lp83
tp84
Rp85
tp86
a(S'arduino_libraries_dir'
p87
S'/usr/share/arduino/libraries'
p88
tp89
a(S'arduino_lib_version'
p90
g2
(cino.environment
Version
p91
c__builtin__
tuple
p92
(I1
I0
I5
tp93
tp94
Rp95
tp96
a(S'objcopy'
p97
S'/usr/share/arduino/hardware/tools/avr/bin/avr-objcopy'
p98
tp99
a(S'board_models'
p100
cino.environment
BoardModels
p101
((lp102
(lp103
S'uno'
p104
a(dp105
S'bootloader'
p106
(dp107
S'extended_fuses'
p108
S'0x05'
p109
sS'high_fuses'
p110
S'0xde'
p111
sS'low_fuses'
p112
S'0xff'
p113
sS'lock_bits'
p114
S'0x0F'
p115
sS'file'
p116
S'optiboot_atmega328.hex'
p117
sS'path'
p118
S'optiboot'
p119
sS'unlock_bits'
p120
S'0x3F'
p121
ssS'upload'
p122
(dp123
S'speed'
p124
S'115200'
p125
sS'maximum_size'
p126
S'32256'
p127
sS'protocol'
p128
S'arduino'
p129
ssS'build'
p130
(dp131
S'core'
p132
S'arduino'
p133
sS'mcu'
p134
S'atmega328p'
p135
sS'f_cpu'
p136
S'16000000L'
p137
sS'variant'
p138
S'standard'
p139
ssS'name'
p140
S'Arduino Uno'
p141
sS'_coredir'
p142
S'/usr/share/arduino/hardware/arduino'
p143
saa(lp144
S'atmega328'
p145
a(dp146
S'bootloader'
p147
(dp148
S'extended_fuses'
p149
S'0x05'
p150
sS'high_fuses'
p151
S'0xDA'
p152
sS'low_fuses'
p153
S'0xFF'
p154
sS'lock_bits'
p155
S'0x0F'
p156
sS'file'
p157
S'ATmegaBOOT_168_atmega328.hex'
p158
sS'path'
p159
S'atmega'
p160
sS'unlock_bits'
p161
S'0x3F'
p162
ssS'upload'
p163
(dp164
S'speed'
p165
S'57600'
p166
sS'maximum_size'
p167
S'30720'
p168
sS'protocol'
p169
S'arduino'
p170
ssS'build'
p171
(dp172
S'core'
p173
S'arduino'
p174
sS'mcu'
p175
S'atmega328p'
p176
sS'f_cpu'
p177
S'16000000L'
p178
sS'variant'
p179
S'standard'
p180
ssS'name'
p181
S'Arduino Duemilanove w/ ATmega328'
p182
sg142
S'/usr/share/arduino/hardware/arduino'
p183
saa(lp184
S'diecimila'
p185
a(dp186
S'bootloader'
p187
(dp188
S'extended_fuses'
p189
S'0x00'
p190
sS'high_fuses'
p191
S'0xdd'
p192
sS'low_fuses'
p193
S'0xff'
p194
sS'lock_bits'
p195
S'0x0F'
p196
sS'file'
p197
S'ATmegaBOOT_168_diecimila.hex'
p198
sS'path'
p199
S'atmega'
p200
sS'unlock_bits'
p201
S'0x3F'
p202
ssS'upload'
p203
(dp204
S'speed'
p205
S'19200'
p206
sS'maximum_size'
p207
S'14336'
p208
sS'protocol'
p209
S'arduino'
p210
ssS'build'
p211
(dp212
S'core'
p213
S'arduino'
p214
sS'mcu'
p215
S'atmega168'
p216
sS'f_cpu'
p217
S'16000000L'
p218
sS'variant'
p219
S'standard'
p220
ssS'name'
p221
S'Arduino Diecimila or Duemilanove w/ ATmega168'
p222
sg142
S'/usr/share/arduino/hardware/arduino'
p223
saa(lp224
S'nano328'
p225
a(dp226
S'bootloader'
p227
(dp228
S'extended_fuses'
p229
S'0x05'
p230
sS'high_fuses'
p231
S'0xDA'
p232
sS'low_fuses'
p233
S'0xFF'
p234
sS'lock_bits'
p235
S'0x0F'
p236
sS'file'
p237
S'ATmegaBOOT_168_atmega328.hex'
p238
sS'path'
p239
S'atmega'
p240
sS'unlock_bits'
p241
S'0x3F'
p242
ssS'upload'
p243
(dp244
S'speed'
p245
S'57600'
p246
sS'maximum_size'
p247
S'30720'
p248
sS'protocol'
p249
S'arduino'
p250
ssS'build'
p251
(dp252
S'core'
p253
S'arduino'
p254
sS'mcu'
p255
S'atmega328p'
p256
sS'f_cpu'
p257
S'16000000L'
p258
sS'variant'
p259
S'eightanaloginputs'
p260
ssS'name'
p261
S'Arduino Nano w/ ATmega328'
p262
sg142
S'/usr/share/arduino/hardware/arduino'
p263
saa(lp264
S'nano'
p265
a(dp266
S'bootloader'
p267
(dp268
S'extended_fuses'
p269
S'0x00'
p270
sS'high_fuses'
p271
S'0xdd'
p272
sS'low_fuses'
p273
S'0xff'
p274
sS'lock_bits'
p275
S'0x0F'
p276
sS'file'
p277
S'ATmegaBOOT_168_diecimila.hex'
p278
sS'path'
p279
S'atmega'
p280
sS'unlock_bits'
p281
S'0x3F'
p282
ssS'upload'
p283
(dp284
S'speed'
p285
S'19200'
p286
sS'maximum_size'
p287
S'14336'
p288
sS'protocol'
p289
S'arduino'
p290
ssS'build'
p291
(dp292
S'core'
p293
S'arduino'
p294
sS'mcu'
p295
S'atmega168'
p296
sS'f_cpu'
p297
S'16000000L'
p298
sS'variant'
p299
S'eightanaloginputs'
p300
ssS'name'
p301
S'Arduino Nano w/ ATmega168'
p302
sg142
S'/usr/share/arduino/hardware/arduino'
p303
saa(lp304
S'mega2560'
p305
a(dp306
S'bootloader'
p307
(dp308
S'extended_fuses'
p309
S'0xFD'
p310
sS'high_fuses'
p311
S'0xD8'
p312
sS'low_fuses'
p313
S'0xFF'
p314
sS'lock_bits'
p315
S'0x0F'
p316
sS'file'
p317
S'stk500boot_v2_mega2560.hex'
p318
sS'path'
p319
S'stk500v2'
p320
sS'unlock_bits'
p321
S'0x3F'
p322
ssS'upload'
p323
(dp324
S'speed'
p325
S'115200'
p326
sS'maximum_size'
p327
S'258048'
p328
sS'protocol'
p329
S'wiring'
p330
ssS'build'
p331
(dp332
S'core'
p333
S'arduino'
p334
sS'mcu'
p335
S'atmega2560'
p336
sS'f_cpu'
p337
S'16000000L'
p338
sS'variant'
p339
S'mega'
p340
ssS'name'
p341
S'Arduino Mega 2560 or Mega ADK'
p342
sg142
S'/usr/share/arduino/hardware/arduino'
p343
saa(lp344
S'mega'
p345
a(dp346
S'bootloader'
p347
(dp348
S'extended_fuses'
p349
S'0xF5'
p350
sS'high_fuses'
p351
S'0xDA'
p352
sS'low_fuses'
p353
S'0xFF'
p354
sS'lock_bits'
p355
S'0x0F'
p356
sS'file'
p357
S'ATmegaBOOT_168_atmega1280.hex'
p358
sS'path'
p359
S'atmega'
p360
sS'unlock_bits'
p361
S'0x3F'
p362
ssS'upload'
p363
(dp364
S'speed'
p365
S'57600'
p366
sS'maximum_size'
p367
S'126976'
p368
sS'protocol'
p369
S'arduino'
p370
ssS'build'
p371
(dp372
S'core'
p373
S'arduino'
p374
sS'mcu'
p375
S'atmega1280'
p376
sS'f_cpu'
p377
S'16000000L'
p378
sS'variant'
p379
S'mega'
p380
ssS'name'
p381
S'Arduino Mega (ATmega1280)'
p382
sg142
S'/usr/share/arduino/hardware/arduino'
p383
saa(lp384
S'leonardo'
p385
a(dp386
S'bootloader'
p387
(dp388
S'extended_fuses'
p389
S'0xcb'
p390
sS'high_fuses'
p391
S'0xd8'
p392
sS'low_fuses'
p393
S'0xff'
p394
sS'lock_bits'
p395
S'0x2F'
p396
sS'file'
p397
S'Caterina-Leonardo.hex'
p398
sS'path'
p399
S'caterina'
p400
sS'unlock_bits'
p401
S'0x3F'
p402
ssS'upload'
p403
(dp404
S'speed'
p405
S'57600'
p406
sS'maximum_size'
p407
S'28672'
p408
sS'protocol'
p409
S'avr109'
p410
sS'disable_flushing'
p411
S'true'
p412
ssS'build'
p413
(dp414
S'core'
p415
S'arduino'
p416
sS'f_cpu'
p417
S'16000000L'
p418
sS'vid'
p419
S'0x2341'
p420
sS'pid'
p421
S'0x8036'
p422
sS'variant'
p423
S'leonardo'
p424
sS'mcu'
p425
S'atmega32u4'
p426
ssS'name'
p427
S'Arduino Leonardo'
p428
sg142
S'/usr/share/arduino/hardware/arduino'
p429
saa(lp430
S'esplora'
p431
a(dp432
S'bootloader'
p433
(dp434
S'extended_fuses'
p435
S'0xcb'
p436
sS'high_fuses'
p437
S'0xd8'
p438
sS'low_fuses'
p439
S'0xff'
p440
sS'lock_bits'
p441
S'0x2F'
p442
sS'file'
p443
S'Caterina-Esplora.hex'
p444
sS'path'
p445
S'caterina'
p446
sS'unlock_bits'
p447
S'0x3F'
p448
ssS'upload'
p449
(dp450
S'speed'
p451
S'57600'
p452
sS'maximum_size'
p453
S'28672'
p454
sS'protocol'
p455
S'avr109'
p456
sS'disable_flushing'
p457
S'true'
p458
ssS'build'
p459
(dp460
S'core'
p461
S'arduino'
p462
sS'f_cpu'
p463
S'16000000L'
p464
sS'vid'
p465
S'0x2341'
p466
sS'pid'
p467
S'0x803C'
p468
sS'variant'
p469
S'leonardo'
p470
sS'mcu'
p471
S'atmega32u4'
p472
ssS'name'
p473
S'Arduino Esplora'
p474
sg142
S'/usr/share/arduino/hardware/arduino'
p475
saa(lp476
S'micro'
p477
a(dp478
S'bootloader'
p479
(dp480
S'extended_fuses'
p481
S'0xcb'
p482
sS'high_fuses'
p483
S'0xd8'
p484
sS'low_fuses'
p485
S'0xff'
p486
sS'lock_bits'
p487
S'0x2F'
p488
sS'file'
p489
S'Caterina-Micro.hex'
p490
sS'path'
p491
S'caterina'
p492
sS'unlock_bits'
p493
S'0x3F'
p494
ssS'upload'
p495
(dp496
S'speed'
p497
S'57600'
p498
sS'maximum_size'
p499
S'28672'
p500
sS'protocol'
p501
S'avr109'
p502
sS'disable_flushing'
p503
S'true'
p504
ssS'build'
p505
(dp506
S'core'
p507
S'arduino'
p508
sS'f_cpu'
p509
S'16000000L'
p510
sS'vid'
p511
S'0x2341'
p512
sS'pid'
p513
S'0x8037'
p514
sS'variant'
p515
S'micro'
p516
sS'mcu'
p517
S'atmega32u4'
p518
ssS'name'
p519
S'Arduino Micro'
p520
sg142
S'/usr/share/arduino/hardware/arduino'
p521
saa(lp522
S'mini328'
p523
a(dp524
S'bootloader'
p525
(dp526
S'extended_fuses'
p527
S'0x05'
p528
sS'high_fuses'
p529
S'0xd8'
p530
sS'low_fuses'
p531
S'0xff'
p532
sS'lock_bits'
p533
S'0x0F'
p534
sS'file'
p535
S'optiboot_atmega328-Mini.hex'
p536
sS'path'
p537
S'optiboot'
p538
sS'unlock_bits'
p539
S'0x3F'
p540
ssS'upload'
p541
(dp542
S'speed'
p543
S'115200'
p544
sS'maximum_size'
p545
S'28672'
p546
sS'protocol'
p547
S'arduino'
p548
ssS'build'
p549
(dp550
S'core'
p551
S'arduino'
p552
sS'mcu'
p553
S'atmega328p'
p554
sS'f_cpu'
p555
S'16000000L'
p556
sS'variant'
p557
S'eightanaloginputs'
p558
ssS'name'
p559
S'Arduino Mini w/ ATmega328'
p560
sg142
S'/usr/share/arduino/hardware/arduino'
p561
saa(lp562
S'mini'
p563
a(dp564
S'bootloader'
p565
(dp566
S'extended_fuses'
p567
S'0x00'
p568
sS'high_fuses'
p569
S'0xdd'
p570
sS'low_fuses'
p571
S'0xff'
p572
sS'lock_bits'
p573
S'0x0F'
p574
sS'file'
p575
S'ATmegaBOOT_168_ng.hex'
p576
sS'path'
p577
S'atmega'
p578
sS'unlock_bits'
p579
S'0x3F'
p580
ssS'upload'
p581
(dp582
S'speed'
p583
S'19200'
p584
sS'maximum_size'
p585
S'14336'
p586
sS'protocol'
p587
S'arduino'
p588
ssS'build'
p589
(dp590
S'core'
p591
S'arduino'
p592
sS'mcu'
p593
S'atmega168'
p594
sS'f_cpu'
p595
S'16000000L'
p596
sS'variant'
p597
S'eightanaloginputs'
p598
ssS'name'
p599
S'Arduino Mini w/ ATmega168'
p600
sg142
S'/usr/share/arduino/hardware/arduino'
p601
saa(lp602
S'ethernet'
p603
a(dp604
S'bootloader'
p605
(dp606
S'extended_fuses'
p607
S'0x05'
p608
sS'high_fuses'
p609
S'0xde'
p610
sS'low_fuses'
p611
S'0xff'
p612
sS'lock_bits'
p613
S'0x0F'
p614
sS'file'
p615
S'optiboot_atmega328.hex'
p616
sS'path'
p617
S'optiboot'
p618
sS'unlock_bits'
p619
S'0x3F'
p620
ssS'upload'
p621
(dp622
S'speed'
p623
S'115200'
p624
sS'maximum_size'
p625
S'32256'
p626
sS'protocol'
p627
S'arduino'
p628
ssS'build'
p629
(dp630
S'f_cpu'
p631
S'16000000L'
p632
sS'mcu'
p633
S'atmega328p'
p634
sS'variant'
p635
S'standard'
p636
sS'core'
p637
S'arduino'
p638
ssS'name'
p639
S'Arduino Ethernet'
p640
sg142
S'/usr/share/arduino/hardware/arduino'
p641
saa(lp642
S'fio'
p643
a(dp644
S'bootloader'
p645
(dp646
S'extended_fuses'
p647
S'0x05'
p648
sS'high_fuses'
p649
S'0xDA'
p650
sS'low_fuses'
p651
S'0xFF'
p652
sS'lock_bits'
p653
S'0x0F'
p654
sS'file'
p655
S'ATmegaBOOT_168_atmega328_pro_8MHz.hex'
p656
sS'path'
p657
S'arduino:atmega'
p658
sS'unlock_bits'
p659
S'0x3F'
p660
ssS'upload'
p661
(dp662
S'speed'
p663
S'57600'
p664
sS'maximum_size'
p665
S'30720'
p666
sS'protocol'
p667
S'arduino'
p668
ssS'build'
p669
(dp670
S'core'
p671
S'arduino'
p672
sS'mcu'
p673
S'atmega328p'
p674
sS'f_cpu'
p675
S'8000000L'
p676
sS'variant'
p677
S'eightanaloginputs'
p678
ssS'name'
p679
S'Arduino Fio'
p680
sg142
S'/usr/share/arduino/hardware/arduino'
p681
saa(lp682
S'bt328'
p683
a(dp684
S'bootloader'
p685
(dp686
S'extended_fuses'
p687
S'0x05'
p688
sS'high_fuses'
p689
S'0xd8'
p690
sS'low_fuses'
p691
S'0xff'
p692
sS'lock_bits'
p693
S'0x0F'
p694
sS'file'
p695
S'ATmegaBOOT_168_atmega328_bt.hex'
p696
sS'path'
p697
S'bt'
p698
sS'unlock_bits'
p699
S'0x3F'
p700
ssS'upload'
p701
(dp702
S'speed'
p703
S'19200'
p704
sS'maximum_size'
p705
S'28672'
p706
sS'protocol'
p707
S'arduino'
p708
sS'disable_flushing'
p709
S'true'
p710
ssS'build'
p711
(dp712
S'core'
p713
S'arduino'
p714
sS'mcu'
p715
S'atmega328p'
p716
sS'f_cpu'
p717
S'16000000L'
p718
sS'variant'
p719
S'eightanaloginputs'
p720
ssS'name'
p721
S'Arduino BT w/ ATmega328'
p722
sg142
S'/usr/share/arduino/hardware/arduino'
p723
saa(lp724
S'bt'
p725
a(dp726
S'bootloader'
p727
(dp728
S'extended_fuses'
p729
S'0x00'
p730
sS'high_fuses'
p731
S'0xdd'
p732
sS'low_fuses'
p733
S'0xff'
p734
sS'lock_bits'
p735
S'0x0F'
p736
sS'file'
p737
S'ATmegaBOOT_168.hex'
p738
sS'path'
p739
S'bt'
p740
sS'unlock_bits'
p741
S'0x3F'
p742
ssS'upload'
p743
(dp744
S'speed'
p745
S'19200'
p746
sS'maximum_size'
p747
S'14336'
p748
sS'protocol'
p749
S'arduino'
p750
sS'disable_flushing'
p751
S'true'
p752
ssS'build'
p753
(dp754
S'core'
p755
S'arduino'
p756
sS'mcu'
p757
S'atmega168'
p758
sS'f_cpu'
p759
S'16000000L'
p760
sS'variant'
p761
S'eightanaloginputs'
p762
ssS'name'
p763
S'Arduino BT w/ ATmega168'
p764
sg142
S'/usr/share/arduino/hardware/arduino'
p765
saa(lp766
S'LilyPadUSB'
p767
a(dp768
S'bootloader'
p769
(dp770
S'extended_fuses'
p771
S'0xce'
p772
sS'high_fuses'
p773
S'0xd8'
p774
sS'low_fuses'
p775
S'0xff'
p776
sS'lock_bits'
p777
S'0x2F'
p778
sS'file'
p779
S'Caterina-LilyPadUSB.hex'
p780
sS'path'
p781
S'caterina-LilyPadUSB'
p782
sS'unlock_bits'
p783
S'0x3F'
p784
ssS'upload'
p785
(dp786
S'speed'
p787
S'57600'
p788
sS'maximum_size'
p789
S'28672'
p790
sS'protocol'
p791
S'avr109'
p792
sS'disable_flushing'
p793
S'true'
p794
ssS'build'
p795
(dp796
S'core'
p797
S'arduino'
p798
sS'f_cpu'
p799
S'8000000L'
p800
sS'vid'
p801
S'0x1B4F'
p802
sS'pid'
p803
S'0x9208'
p804
sS'variant'
p805
S'leonardo'
p806
sS'mcu'
p807
S'atmega32u4'
p808
ssS'name'
p809
S'LilyPad Arduino USB'
p810
sg142
S'/usr/share/arduino/hardware/arduino'
p811
saa(lp812
S'lilypad328'
p813
a(dp814
S'bootloader'
p815
(dp816
S'extended_fuses'
p817
S'0x05'
p818
sS'high_fuses'
p819
S'0xDA'
p820
sS'low_fuses'
p821
S'0xFF'
p822
sS'lock_bits'
p823
S'0x0F'
p824
sS'file'
p825
S'ATmegaBOOT_168_atmega328_pro_8MHz.hex'
p826
sS'path'
p827
S'atmega'
p828
sS'unlock_bits'
p829
S'0x3F'
p830
ssS'upload'
p831
(dp832
S'speed'
p833
S'57600'
p834
sS'maximum_size'
p835
S'30720'
p836
sS'protocol'
p837
S'arduino'
p838
ssS'build'
p839
(dp840
S'core'
p841
S'arduino'
p842
sS'mcu'
p843
S'atmega328p'
p844
sS'f_cpu'
p845
S'8000000L'
p846
sS'variant'
p847
S'standard'
p848
ssS'name'
p849
S'LilyPad Arduino w/ ATmega328'
p850
sg142
S'/usr/share/arduino/hardware/arduino'
p851
saa(lp852
S'lilypad'
p853
a(dp854
S'bootloader'
p855
(dp856
S'extended_fuses'
p857
S'0x00'
p858
sS'high_fuses'
p859
S'0xdd'
p860
sS'low_fuses'
p861
S'0xe2'
p862
sS'lock_bits'
p863
S'0x0F'
p864
sS'file'
p865
S'LilyPadBOOT_168.hex'
p866
sS'path'
p867
S'lilypad'
p868
sS'unlock_bits'
p869
S'0x3F'
p870
ssS'upload'
p871
(dp872
S'speed'
p873
S'19200'
p874
sS'maximum_size'
p875
S'14336'
p876
sS'protocol'
p877
S'arduino'
p878
ssS'build'
p879
(dp880
S'core'
p881
S'arduino'
p882
sS'mcu'
p883
S'atmega168'
p884
sS'f_cpu'
p885
S'8000000L'
p886
sS'variant'
p887
S'standard'
p888
ssS'name'
p889
S'LilyPad Arduino w/ ATmega168'
p890
sg142
S'/usr/share/arduino/hardware/arduino'
p891
saa(lp892
S'pro5v328'
p893
a(dp894
S'bootloader'
p895
(dp896
S'extended_fuses'
p897
S'0x05'
p898
sS'high_fuses'
p899
S'0xDA'
p900
sS'low_fuses'
p901
S'0xFF'
p902
sS'lock_bits'
p903
S'0x0F'
p904
sS'file'
p905
S'ATmegaBOOT_168_atmega328.hex'
p906
sS'path'
p907
S'atmega'
p908
sS'unlock_bits'
p909
S'0x3F'
p910
ssS'upload'
p911
(dp912
S'speed'
p913
S'57600'
p914
sS'maximum_size'
p915
S'30720'
p916
sS'protocol'
p917
S'arduino'
p918
ssS'build'
p919
(dp920
S'core'
p921
S'arduino'
p922
sS'mcu'
p923
S'atmega328p'
p924
sS'f_cpu'
p925
S'16000000L'
p926
sS'variant'
p927
S'standard'
p928
ssS'name'
p929
S'Arduino Pro or Pro Mini (5V, 16 MHz) w/ ATmega328'
p930
sg142
S'/usr/share/arduino/hardware/arduino'
p931
saa(lp932
S'pro5v'
p933
a(dp934
S'bootloader'
p935
(dp936
S'extended_fuses'
p937
S'0x00'
p938
sS'high_fuses'
p939
S'0xdd'
p940
sS'low_fuses'
p941
S'0xff'
p942
sS'lock_bits'
p943
S'0x0F'
p944
sS'file'
p945
S'ATmegaBOOT_168_diecimila.hex'
p946
sS'path'
p947
S'atmega'
p948
sS'unlock_bits'
p949
S'0x3F'
p950
ssS'upload'
p951
(dp952
S'speed'
p953
S'19200'
p954
sS'maximum_size'
p955
S'14336'
p956
sS'protocol'
p957
S'arduino'
p958
ssS'build'
p959
(dp960
S'core'
p961
S'arduino'
p962
sS'mcu'
p963
S'atmega168'
p964
sS'f_cpu'
p965
S'16000000L'
p966
sS'variant'
p967
S'standard'
p968
ssS'name'
p969
S'Arduino Pro or Pro Mini (5V, 16 MHz) w/ ATmega168'
p970
sg142
S'/usr/share/arduino/hardware/arduino'
p971
saa(lp972
S'pro328'
p973
a(dp974
S'bootloader'
p975
(dp976
S'extended_fuses'
p977
S'0x05'
p978
sS'high_fuses'
p979
S'0xDA'
p980
sS'low_fuses'
p981
S'0xFF'
p982
sS'lock_bits'
p983
S'0x0F'
p984
sS'file'
p985
S'ATmegaBOOT_168_atmega328_pro_8MHz.hex'
p986
sS'path'
p987
S'atmega'
p988
sS'unlock_bits'
p989
S'0x3F'
p990
ssS'upload'
p991
(dp992
S'speed'
p993
S'57600'
p994
sS'maximum_size'
p995
S'30720'
p996
sS'protocol'
p997
S'arduino'
p998
ssS'build'
p999
(dp1000
S'core'
p1001
S'arduino'
p1002
sS'mcu'
p1003
S'atmega328p'
p1004
sS'f_cpu'
p1005
S'8000000L'
p1006
sS'variant'
p1007
S'standard'
p1008
ssS'name'
p1009
S'Arduino Pro or Pro Mini (3.3V, 8 MHz) w/ ATmega328'
p1010
sg142
S'/usr/share/arduino/hardware/arduino'
p1011
saa(lp1012
S'pro'
p1013
a(dp1014
S'bootloader'
p1015
(dp1016
S'extended_fuses'
p1017
S'0x00'
p1018
sS'high_fuses'
p1019
S'0xdd'
p1020
sS'low_fuses'
p1021
S'0xc6'
p1022
sS'lock_bits'
p1023
S'0x0F'
p1024
sS'file'
p1025
S'ATmegaBOOT_168_pro_8MHz.hex'
p1026
sS'path'
p1027
S'atmega'
p1028
sS'unlock_bits'
p1029
S'0x3F'
p1030
ssS'upload'
p1031
(dp1032
S'speed'
p1033
S'19200'
p1034
sS'maximum_size'
p1035
S'14336'
p1036
sS'protocol'
p1037
S'arduino'
p1038
ssS'build'
p1039
(dp1040
S'core'
p1041
S'arduino'
p1042
sS'mcu'
p1043
S'atmega168'
p1044
sS'f_cpu'
p1045
S'8000000L'
p1046
sS'variant'
p1047
S'standard'
p1048
ssS'name'
p1049
S'Arduino Pro or Pro Mini (3.3V, 8 MHz) w/ ATmega168'
p1050
sg142
S'/usr/share/arduino/hardware/arduino'
p1051
saa(lp1052
S'atmega168'
p1053
a(dp1054
S'bootloader'
p1055
(dp1056
S'extended_fuses'
p1057
S'0x00'
p1058
sS'high_fuses'
p1059
S'0xdd'
p1060
sS'low_fuses'
p1061
S'0xff'
p1062
sS'lock_bits'
p1063
S'0x0F'
p1064
sS'file'
p1065
S'ATmegaBOOT_168_ng.hex'
p1066
sS'path'
p1067
S'atmega'
p1068
sS'unlock_bits'
p1069
S'0x3F'
p1070
ssS'upload'
p1071
(dp1072
S'speed'
p1073
S'19200'
p1074
sS'maximum_size'
p1075
S'14336'
p1076
sS'protocol'
p1077
S'arduino'
p1078
ssS'build'
p1079
(dp1080
S'core'
p1081
S'arduino'
p1082
sS'mcu'
p1083
S'atmega168'
p1084
sS'f_cpu'
p1085
S'16000000L'
p1086
sS'variant'
p1087
S'standard'
p1088
ssS'name'
p1089
S'Arduino NG or older w/ ATmega168'
p1090
sg142
S'/usr/share/arduino/hardware/arduino'
p1091
saa(lp1092
S'atmega8'
p1093
a(dp1094
S'bootloader'
p1095
(dp1096
S'high_fuses'
p1097
S'0xca'
p1098
sS'low_fuses'
p1099
S'0xdf'
p1100
sS'lock_bits'
p1101
S'0x0F'
p1102
sS'file'
p1103
S'ATmegaBOOT-prod-firmware-2009-11-07.hex'
p1104
sS'path'
p1105
S'atmega8'
p1106
sS'unlock_bits'
p1107
S'0x3F'
p1108
ssS'upload'
p1109
(dp1110
S'speed'
p1111
S'19200'
p1112
sS'maximum_size'
p1113
S'7168'
p1114
sS'protocol'
p1115
S'arduino'
p1116
ssS'build'
p1117
(dp1118
S'core'
p1119
S'arduino'
p1120
sS'mcu'
p1121
S'atmega8'
p1122
sS'f_cpu'
p1123
S'16000000L'
p1124
sS'variant'
p1125
S'standard'
p1126
ssS'name'
p1127
S'Arduino NG or older w/ ATmega8'
p1128
sg142
S'/usr/share/arduino/hardware/arduino'
p1129
saa(lp1130
S'robotControl'
p1131
a(dp1132
S'bootloader'
p1133
(dp1134
S'extended_fuses'
p1135
S'0xcb'
p1136
sS'high_fuses'
p1137
S'0xd8'
p1138
sS'low_fuses'
p1139
S'0xff'
p1140
sS'lock_bits'
p1141
S'0x2F'
p1142
sS'file'
p1143
S'Caterina-Robot-Control.hex'
p1144
sS'path'
p1145
S'caterina-Arduino_Robot'
p1146
sS'unlock_bits'
p1147
S'0x3F'
p1148
ssS'upload'
p1149
(dp1150
S'speed'
p1151
S'57600'
p1152
sS'maximum_size'
p1153
S'28672'
p1154
sS'protocol'
p1155
S'avr109'
p1156
sS'disable_flushing'
p1157
S'true'
p1158
ssS'build'
p1159
(dp1160
S'core'
p1161
S'robot'
p1162
sS'f_cpu'
p1163
S'16000000L'
p1164
sS'vid'
p1165
S'0x2341'
p1166
sS'pid'
p1167
S'0x8038'
p1168
sS'variant'
p1169
S'robot_control'
p1170
sS'mcu'
p1171
S'atmega32u4'
p1172
ssS'name'
p1173
S'Arduino Robot Control'
p1174
sg142
S'/usr/share/arduino/hardware/arduino'
p1175
saa(lp1176
S'robotMotor'
p1177
a(dp1178
S'bootloader'
p1179
(dp1180
S'extended_fuses'
p1181
S'0xcb'
p1182
sS'high_fuses'
p1183
S'0xd8'
p1184
sS'low_fuses'
p1185
S'0xff'
p1186
sS'lock_bits'
p1187
S'0x2F'
p1188
sS'file'
p1189
S'Caterina-Robot-Motor.hex'
p1190
sS'path'
p1191
S'caterina-Arduino_Robot'
p1192
sS'unlock_bits'
p1193
S'0x3F'
p1194
ssS'upload'
p1195
(dp1196
S'speed'
p1197
S'57600'
p1198
sS'maximum_size'
p1199
S'28672'
p1200
sS'protocol'
p1201
S'avr109'
p1202
sS'disable_flushing'
p1203
S'true'
p1204
ssS'build'
p1205
(dp1206
S'core'
p1207
S'robot'
p1208
sS'f_cpu'
p1209
S'16000000L'
p1210
sS'vid'
p1211
S'0x2341'
p1212
sS'pid'
p1213
S'0x8039'
p1214
sS'variant'
p1215
S'robot_motor'
p1216
sS'mcu'
p1217
S'atmega32u4'
p1218
ssS'name'
p1219
S'Arduino Robot Motor'
p1220
sg142
S'/usr/share/arduino/hardware/arduino'
p1221
saatp1222
Rp1223
(dp1224
S'default'
p1225
S'uno'
p1226
sbtp1227
a(S'ldflags'
p1228
g2
(g3
g4
(lp1229
g6
aS'-Wl,-Os'
p1230
aS'-Wl,--gc-sections'
p1231
atp1232
Rp1233
tp1234
a.