(lp0
(S'cppflags'
p1
ccopy_reg
_reconstructor
p2
(cino.utils
SpaceList
p3
c__builtin__
list
p4
(lp5
S'-mmcu=atmega328p'
p6
aS'-DF_CPU=16000000L'
p7
aS'-DARDUINO=105'
p8
aS'-I/usr/share/arduino/hardware/arduino/cores/arduino'
p9
aS'-ffunction-sections'
p10
aS'-fdata-sections'
p11
aS'-g'
p12
aS'-Os'
p13
aS'-w'
p14
aS'-I/usr/share/arduino/hardware/arduino/variants/standard'
p15
aS'-I/usr/share/arduino/libraries/SoftwareSerial'
p16
aS'-I/usr/share/arduino/hardware/arduino/cores/arduino'
p17
aS'-I/usr/share/arduino/hardware/arduino/cores/arduino/avr-libc'
p18
atp19
Rp20
tp21
a(S'version.txt'
p22
S'/usr/share/arduino/lib/version.txt'
p23
tp24
a(S'used_libs'
p25
(lp26
S'/usr/share/arduino/libraries/SoftwareSerial'
p27
aS'/usr/share/arduino/hardware/arduino/cores/arduino'
p28
atp29
a(S'cc'
p30
S'/usr/share/arduino/hardware/tools/avr/bin/avr-gcc'
p31
tp32
a(S'make'
p33
S'/usr/share/arduino/hardware/tools/avr/bin/make'
p34
tp35
a(S'build_dir'
p36
S'.build/uno'
p37
tp38
a(S'arduino_core_dir'
p39
g28
tp40
a(S'boards.txt'
p41
(lp42
S'/usr/share/arduino/hardware/arduino/boards.txt'
p43
atp44
a(S'cxxflags'
p45
g2
(g3
g4
(lp46
S'-fno-exceptions'
p47
atp48
Rp49
tp50
a(S'arduino_variants_dir'
p51
S'/usr/share/arduino/hardware/arduino/variants'
p52
tp53
a(S'deps'
p54
g2
(g3
g4
(lp55
S'.build/uno/src/dependencies.d'
p56
aS'.build/uno/arduino/dependencies.d'
p57
aS'.build/uno/SoftwareSerial/dependencies.d'
p58
atp59
Rp60
tp61
a(S'ar'
p62
S'/usr/share/arduino/hardware/tools/avr/bin/avr-ar'
p63
tp64
a(S'names'
p65
(dp66
S'cpp'
p67
S'%s.cpp'
p68
sS'obj'
p69
S'%s.o'
p70
sg54
S'%s.d'
p71
sS'lib'
p72
S'lib%s.a'
p73
stp74
a(S'cflags'
p75
g2
(g3
g4
(lp76
tp77
Rp78
tp79
a(S'ldflags'
p80
g2
(g3
g4
(lp81
g6
aS'-Wl,-Os'
p82
aS'-Wl,--gc-sections'
p83
atp84
Rp85
tp86
a(S'arduino_libraries_dir'
p87
S'/usr/share/arduino/libraries'
p88
tp89
a(S'arduino_lib_version'
p90
g2
(cino.environment
Version
p91
c__builtin__
tuple
p92
(I1
I0
I5
tp93
tp94
Rp95
tp96
a(S'objcopy'
p97
S'/usr/share/arduino/hardware/tools/avr/bin/avr-objcopy'
p98
tp99
a(S'board_models'
p100
cino.environment
BoardModels
p101
((lp102
(lp103
S'uno'
p104
a(dp105
S'build'
p106
(dp107
S'core'
p108
S'arduino'
p109
sS'mcu'
p110
S'atmega328p'
p111
sS'f_cpu'
p112
S'16000000L'
p113
sS'variant'
p114
S'standard'
p115
ssS'bootloader'
p116
(dp117
S'extended_fuses'
p118
S'0x05'
p119
sS'high_fuses'
p120
S'0xde'
p121
sS'low_fuses'
p122
S'0xff'
p123
sS'lock_bits'
p124
S'0x0F'
p125
sS'file'
p126
S'optiboot_atmega328.hex'
p127
sS'path'
p128
S'optiboot'
p129
sS'unlock_bits'
p130
S'0x3F'
p131
ssS'upload'
p132
(dp133
S'speed'
p134
S'115200'
p135
sS'maximum_size'
p136
S'32256'
p137
sS'protocol'
p138
S'arduino'
p139
ssS'name'
p140
S'Arduino Uno'
p141
sS'_coredir'
p142
S'/usr/share/arduino/hardware/arduino'
p143
saa(lp144
S'atmega328'
p145
a(dp146
S'build'
p147
(dp148
S'core'
p149
S'arduino'
p150
sS'mcu'
p151
S'atmega328p'
p152
sS'f_cpu'
p153
S'16000000L'
p154
sS'variant'
p155
S'standard'
p156
ssS'bootloader'
p157
(dp158
S'extended_fuses'
p159
S'0x05'
p160
sS'high_fuses'
p161
S'0xDA'
p162
sS'low_fuses'
p163
S'0xFF'
p164
sS'lock_bits'
p165
S'0x0F'
p166
sS'file'
p167
S'ATmegaBOOT_168_atmega328.hex'
p168
sS'path'
p169
S'atmega'
p170
sS'unlock_bits'
p171
S'0x3F'
p172
ssS'upload'
p173
(dp174
S'speed'
p175
S'57600'
p176
sS'maximum_size'
p177
S'30720'
p178
sS'protocol'
p179
S'arduino'
p180
ssS'name'
p181
S'Arduino Duemilanove w/ ATmega328'
p182
sg142
S'/usr/share/arduino/hardware/arduino'
p183
saa(lp184
S'diecimila'
p185
a(dp186
S'build'
p187
(dp188
S'core'
p189
S'arduino'
p190
sS'mcu'
p191
S'atmega168'
p192
sS'f_cpu'
p193
S'16000000L'
p194
sS'variant'
p195
S'standard'
p196
ssS'bootloader'
p197
(dp198
S'extended_fuses'
p199
S'0x00'
p200
sS'high_fuses'
p201
S'0xdd'
p202
sS'low_fuses'
p203
S'0xff'
p204
sS'lock_bits'
p205
S'0x0F'
p206
sS'file'
p207
S'ATmegaBOOT_168_diecimila.hex'
p208
sS'path'
p209
S'atmega'
p210
sS'unlock_bits'
p211
S'0x3F'
p212
ssS'upload'
p213
(dp214
S'speed'
p215
S'19200'
p216
sS'maximum_size'
p217
S'14336'
p218
sS'protocol'
p219
S'arduino'
p220
ssS'name'
p221
S'Arduino Diecimila or Duemilanove w/ ATmega168'
p222
sg142
S'/usr/share/arduino/hardware/arduino'
p223
saa(lp224
S'nano328'
p225
a(dp226
S'build'
p227
(dp228
S'core'
p229
S'arduino'
p230
sS'mcu'
p231
S'atmega328p'
p232
sS'f_cpu'
p233
S'16000000L'
p234
sS'variant'
p235
S'eightanaloginputs'
p236
ssS'bootloader'
p237
(dp238
S'extended_fuses'
p239
S'0x05'
p240
sS'high_fuses'
p241
S'0xDA'
p242
sS'low_fuses'
p243
S'0xFF'
p244
sS'lock_bits'
p245
S'0x0F'
p246
sS'file'
p247
S'ATmegaBOOT_168_atmega328.hex'
p248
sS'path'
p249
S'atmega'
p250
sS'unlock_bits'
p251
S'0x3F'
p252
ssS'upload'
p253
(dp254
S'speed'
p255
S'57600'
p256
sS'maximum_size'
p257
S'30720'
p258
sS'protocol'
p259
S'arduino'
p260
ssS'name'
p261
S'Arduino Nano w/ ATmega328'
p262
sg142
S'/usr/share/arduino/hardware/arduino'
p263
saa(lp264
S'nano'
p265
a(dp266
S'build'
p267
(dp268
S'core'
p269
S'arduino'
p270
sS'mcu'
p271
S'atmega168'
p272
sS'f_cpu'
p273
S'16000000L'
p274
sS'variant'
p275
S'eightanaloginputs'
p276
ssS'bootloader'
p277
(dp278
S'extended_fuses'
p279
S'0x00'
p280
sS'high_fuses'
p281
S'0xdd'
p282
sS'low_fuses'
p283
S'0xff'
p284
sS'lock_bits'
p285
S'0x0F'
p286
sS'file'
p287
S'ATmegaBOOT_168_diecimila.hex'
p288
sS'path'
p289
S'atmega'
p290
sS'unlock_bits'
p291
S'0x3F'
p292
ssS'upload'
p293
(dp294
S'speed'
p295
S'19200'
p296
sS'maximum_size'
p297
S'14336'
p298
sS'protocol'
p299
S'arduino'
p300
ssS'name'
p301
S'Arduino Nano w/ ATmega168'
p302
sg142
S'/usr/share/arduino/hardware/arduino'
p303
saa(lp304
S'mega2560'
p305
a(dp306
S'build'
p307
(dp308
S'core'
p309
S'arduino'
p310
sS'mcu'
p311
S'atmega2560'
p312
sS'f_cpu'
p313
S'16000000L'
p314
sS'variant'
p315
S'mega'
p316
ssS'bootloader'
p317
(dp318
S'extended_fuses'
p319
S'0xFD'
p320
sS'high_fuses'
p321
S'0xD8'
p322
sS'low_fuses'
p323
S'0xFF'
p324
sS'lock_bits'
p325
S'0x0F'
p326
sS'file'
p327
S'stk500boot_v2_mega2560.hex'
p328
sS'path'
p329
S'stk500v2'
p330
sS'unlock_bits'
p331
S'0x3F'
p332
ssS'upload'
p333
(dp334
S'speed'
p335
S'115200'
p336
sS'maximum_size'
p337
S'258048'
p338
sS'protocol'
p339
S'wiring'
p340
ssS'name'
p341
S'Arduino Mega 2560 or Mega ADK'
p342
sg142
S'/usr/share/arduino/hardware/arduino'
p343
saa(lp344
S'mega'
p345
a(dp346
S'build'
p347
(dp348
S'core'
p349
S'arduino'
p350
sS'mcu'
p351
S'atmega1280'
p352
sS'f_cpu'
p353
S'16000000L'
p354
sS'variant'
p355
S'mega'
p356
ssS'bootloader'
p357
(dp358
S'extended_fuses'
p359
S'0xF5'
p360
sS'high_fuses'
p361
S'0xDA'
p362
sS'low_fuses'
p363
S'0xFF'
p364
sS'lock_bits'
p365
S'0x0F'
p366
sS'file'
p367
S'ATmegaBOOT_168_atmega1280.hex'
p368
sS'path'
p369
S'atmega'
p370
sS'unlock_bits'
p371
S'0x3F'
p372
ssS'upload'
p373
(dp374
S'speed'
p375
S'57600'
p376
sS'maximum_size'
p377
S'126976'
p378
sS'protocol'
p379
S'arduino'
p380
ssS'name'
p381
S'Arduino Mega (ATmega1280)'
p382
sg142
S'/usr/share/arduino/hardware/arduino'
p383
saa(lp384
S'leonardo'
p385
a(dp386
S'build'
p387
(dp388
S'core'
p389
S'arduino'
p390
sS'f_cpu'
p391
S'16000000L'
p392
sS'vid'
p393
S'0x2341'
p394
sS'pid'
p395
S'0x8036'
p396
sS'variant'
p397
S'leonardo'
p398
sS'mcu'
p399
S'atmega32u4'
p400
ssS'bootloader'
p401
(dp402
S'extended_fuses'
p403
S'0xcb'
p404
sS'high_fuses'
p405
S'0xd8'
p406
sS'low_fuses'
p407
S'0xff'
p408
sS'lock_bits'
p409
S'0x2F'
p410
sS'file'
p411
S'Caterina-Leonardo.hex'
p412
sS'path'
p413
S'caterina'
p414
sS'unlock_bits'
p415
S'0x3F'
p416
ssS'upload'
p417
(dp418
S'speed'
p419
S'57600'
p420
sS'maximum_size'
p421
S'28672'
p422
sS'protocol'
p423
S'avr109'
p424
sS'disable_flushing'
p425
S'true'
p426
ssS'name'
p427
S'Arduino Leonardo'
p428
sg142
S'/usr/share/arduino/hardware/arduino'
p429
saa(lp430
S'esplora'
p431
a(dp432
S'build'
p433
(dp434
S'core'
p435
S'arduino'
p436
sS'f_cpu'
p437
S'16000000L'
p438
sS'vid'
p439
S'0x2341'
p440
sS'pid'
p441
S'0x803C'
p442
sS'variant'
p443
S'leonardo'
p444
sS'mcu'
p445
S'atmega32u4'
p446
ssS'bootloader'
p447
(dp448
S'extended_fuses'
p449
S'0xcb'
p450
sS'high_fuses'
p451
S'0xd8'
p452
sS'low_fuses'
p453
S'0xff'
p454
sS'lock_bits'
p455
S'0x2F'
p456
sS'file'
p457
S'Caterina-Esplora.hex'
p458
sS'path'
p459
S'caterina'
p460
sS'unlock_bits'
p461
S'0x3F'
p462
ssS'upload'
p463
(dp464
S'speed'
p465
S'57600'
p466
sS'maximum_size'
p467
S'28672'
p468
sS'protocol'
p469
S'avr109'
p470
sS'disable_flushing'
p471
S'true'
p472
ssS'name'
p473
S'Arduino Esplora'
p474
sg142
S'/usr/share/arduino/hardware/arduino'
p475
saa(lp476
S'micro'
p477
a(dp478
S'build'
p479
(dp480
S'core'
p481
S'arduino'
p482
sS'f_cpu'
p483
S'16000000L'
p484
sS'vid'
p485
S'0x2341'
p486
sS'pid'
p487
S'0x8037'
p488
sS'variant'
p489
S'micro'
p490
sS'mcu'
p491
S'atmega32u4'
p492
ssS'bootloader'
p493
(dp494
S'extended_fuses'
p495
S'0xcb'
p496
sS'high_fuses'
p497
S'0xd8'
p498
sS'low_fuses'
p499
S'0xff'
p500
sS'lock_bits'
p501
S'0x2F'
p502
sS'file'
p503
S'Caterina-Micro.hex'
p504
sS'path'
p505
S'caterina'
p506
sS'unlock_bits'
p507
S'0x3F'
p508
ssS'upload'
p509
(dp510
S'speed'
p511
S'57600'
p512
sS'maximum_size'
p513
S'28672'
p514
sS'protocol'
p515
S'avr109'
p516
sS'disable_flushing'
p517
S'true'
p518
ssS'name'
p519
S'Arduino Micro'
p520
sg142
S'/usr/share/arduino/hardware/arduino'
p521
saa(lp522
S'mini328'
p523
a(dp524
S'build'
p525
(dp526
S'core'
p527
S'arduino'
p528
sS'mcu'
p529
S'atmega328p'
p530
sS'f_cpu'
p531
S'16000000L'
p532
sS'variant'
p533
S'eightanaloginputs'
p534
ssS'bootloader'
p535
(dp536
S'extended_fuses'
p537
S'0x05'
p538
sS'high_fuses'
p539
S'0xd8'
p540
sS'low_fuses'
p541
S'0xff'
p542
sS'lock_bits'
p543
S'0x0F'
p544
sS'file'
p545
S'optiboot_atmega328-Mini.hex'
p546
sS'path'
p547
S'optiboot'
p548
sS'unlock_bits'
p549
S'0x3F'
p550
ssS'upload'
p551
(dp552
S'speed'
p553
S'115200'
p554
sS'maximum_size'
p555
S'28672'
p556
sS'protocol'
p557
S'arduino'
p558
ssS'name'
p559
S'Arduino Mini w/ ATmega328'
p560
sg142
S'/usr/share/arduino/hardware/arduino'
p561
saa(lp562
S'mini'
p563
a(dp564
S'build'
p565
(dp566
S'core'
p567
S'arduino'
p568
sS'mcu'
p569
S'atmega168'
p570
sS'f_cpu'
p571
S'16000000L'
p572
sS'variant'
p573
S'eightanaloginputs'
p574
ssS'bootloader'
p575
(dp576
S'extended_fuses'
p577
S'0x00'
p578
sS'high_fuses'
p579
S'0xdd'
p580
sS'low_fuses'
p581
S'0xff'
p582
sS'lock_bits'
p583
S'0x0F'
p584
sS'file'
p585
S'ATmegaBOOT_168_ng.hex'
p586
sS'path'
p587
S'atmega'
p588
sS'unlock_bits'
p589
S'0x3F'
p590
ssS'upload'
p591
(dp592
S'speed'
p593
S'19200'
p594
sS'maximum_size'
p595
S'14336'
p596
sS'protocol'
p597
S'arduino'
p598
ssS'name'
p599
S'Arduino Mini w/ ATmega168'
p600
sg142
S'/usr/share/arduino/hardware/arduino'
p601
saa(lp602
S'ethernet'
p603
a(dp604
S'build'
p605
(dp606
S'f_cpu'
p607
S'16000000L'
p608
sS'mcu'
p609
S'atmega328p'
p610
sS'variant'
p611
S'standard'
p612
sS'core'
p613
S'arduino'
p614
ssS'bootloader'
p615
(dp616
S'extended_fuses'
p617
S'0x05'
p618
sS'high_fuses'
p619
S'0xde'
p620
sS'low_fuses'
p621
S'0xff'
p622
sS'lock_bits'
p623
S'0x0F'
p624
sS'file'
p625
S'optiboot_atmega328.hex'
p626
sS'path'
p627
S'optiboot'
p628
sS'unlock_bits'
p629
S'0x3F'
p630
ssS'upload'
p631
(dp632
S'speed'
p633
S'115200'
p634
sS'maximum_size'
p635
S'32256'
p636
sS'protocol'
p637
S'arduino'
p638
ssS'name'
p639
S'Arduino Ethernet'
p640
sg142
S'/usr/share/arduino/hardware/arduino'
p641
saa(lp642
S'fio'
p643
a(dp644
S'build'
p645
(dp646
S'core'
p647
S'arduino'
p648
sS'mcu'
p649
S'atmega328p'
p650
sS'f_cpu'
p651
S'8000000L'
p652
sS'variant'
p653
S'eightanaloginputs'
p654
ssS'bootloader'
p655
(dp656
S'extended_fuses'
p657
S'0x05'
p658
sS'high_fuses'
p659
S'0xDA'
p660
sS'low_fuses'
p661
S'0xFF'
p662
sS'lock_bits'
p663
S'0x0F'
p664
sS'file'
p665
S'ATmegaBOOT_168_atmega328_pro_8MHz.hex'
p666
sS'path'
p667
S'arduino:atmega'
p668
sS'unlock_bits'
p669
S'0x3F'
p670
ssS'upload'
p671
(dp672
S'speed'
p673
S'57600'
p674
sS'maximum_size'
p675
S'30720'
p676
sS'protocol'
p677
S'arduino'
p678
ssS'name'
p679
S'Arduino Fio'
p680
sg142
S'/usr/share/arduino/hardware/arduino'
p681
saa(lp682
S'bt328'
p683
a(dp684
S'build'
p685
(dp686
S'core'
p687
S'arduino'
p688
sS'mcu'
p689
S'atmega328p'
p690
sS'f_cpu'
p691
S'16000000L'
p692
sS'variant'
p693
S'eightanaloginputs'
p694
ssS'bootloader'
p695
(dp696
S'extended_fuses'
p697
S'0x05'
p698
sS'high_fuses'
p699
S'0xd8'
p700
sS'low_fuses'
p701
S'0xff'
p702
sS'lock_bits'
p703
S'0x0F'
p704
sS'file'
p705
S'ATmegaBOOT_168_atmega328_bt.hex'
p706
sS'path'
p707
S'bt'
p708
sS'unlock_bits'
p709
S'0x3F'
p710
ssS'upload'
p711
(dp712
S'speed'
p713
S'19200'
p714
sS'maximum_size'
p715
S'28672'
p716
sS'protocol'
p717
S'arduino'
p718
sS'disable_flushing'
p719
S'true'
p720
ssS'name'
p721
S'Arduino BT w/ ATmega328'
p722
sg142
S'/usr/share/arduino/hardware/arduino'
p723
saa(lp724
S'bt'
p725
a(dp726
S'build'
p727
(dp728
S'core'
p729
S'arduino'
p730
sS'mcu'
p731
S'atmega168'
p732
sS'f_cpu'
p733
S'16000000L'
p734
sS'variant'
p735
S'eightanaloginputs'
p736
ssS'bootloader'
p737
(dp738
S'extended_fuses'
p739
S'0x00'
p740
sS'high_fuses'
p741
S'0xdd'
p742
sS'low_fuses'
p743
S'0xff'
p744
sS'lock_bits'
p745
S'0x0F'
p746
sS'file'
p747
S'ATmegaBOOT_168.hex'
p748
sS'path'
p749
S'bt'
p750
sS'unlock_bits'
p751
S'0x3F'
p752
ssS'upload'
p753
(dp754
S'speed'
p755
S'19200'
p756
sS'maximum_size'
p757
S'14336'
p758
sS'protocol'
p759
S'arduino'
p760
sS'disable_flushing'
p761
S'true'
p762
ssS'name'
p763
S'Arduino BT w/ ATmega168'
p764
sg142
S'/usr/share/arduino/hardware/arduino'
p765
saa(lp766
S'LilyPadUSB'
p767
a(dp768
S'build'
p769
(dp770
S'core'
p771
S'arduino'
p772
sS'f_cpu'
p773
S'8000000L'
p774
sS'vid'
p775
S'0x1B4F'
p776
sS'pid'
p777
S'0x9208'
p778
sS'variant'
p779
S'leonardo'
p780
sS'mcu'
p781
S'atmega32u4'
p782
ssS'bootloader'
p783
(dp784
S'extended_fuses'
p785
S'0xce'
p786
sS'high_fuses'
p787
S'0xd8'
p788
sS'low_fuses'
p789
S'0xff'
p790
sS'lock_bits'
p791
S'0x2F'
p792
sS'file'
p793
S'Caterina-LilyPadUSB.hex'
p794
sS'path'
p795
S'caterina-LilyPadUSB'
p796
sS'unlock_bits'
p797
S'0x3F'
p798
ssS'upload'
p799
(dp800
S'speed'
p801
S'57600'
p802
sS'maximum_size'
p803
S'28672'
p804
sS'protocol'
p805
S'avr109'
p806
sS'disable_flushing'
p807
S'true'
p808
ssS'name'
p809
S'LilyPad Arduino USB'
p810
sg142
S'/usr/share/arduino/hardware/arduino'
p811
saa(lp812
S'lilypad328'
p813
a(dp814
S'build'
p815
(dp816
S'core'
p817
S'arduino'
p818
sS'mcu'
p819
S'atmega328p'
p820
sS'f_cpu'
p821
S'8000000L'
p822
sS'variant'
p823
S'standard'
p824
ssS'bootloader'
p825
(dp826
S'extended_fuses'
p827
S'0x05'
p828
sS'high_fuses'
p829
S'0xDA'
p830
sS'low_fuses'
p831
S'0xFF'
p832
sS'lock_bits'
p833
S'0x0F'
p834
sS'file'
p835
S'ATmegaBOOT_168_atmega328_pro_8MHz.hex'
p836
sS'path'
p837
S'atmega'
p838
sS'unlock_bits'
p839
S'0x3F'
p840
ssS'upload'
p841
(dp842
S'speed'
p843
S'57600'
p844
sS'maximum_size'
p845
S'30720'
p846
sS'protocol'
p847
S'arduino'
p848
ssS'name'
p849
S'LilyPad Arduino w/ ATmega328'
p850
sg142
S'/usr/share/arduino/hardware/arduino'
p851
saa(lp852
S'lilypad'
p853
a(dp854
S'build'
p855
(dp856
S'core'
p857
S'arduino'
p858
sS'mcu'
p859
S'atmega168'
p860
sS'f_cpu'
p861
S'8000000L'
p862
sS'variant'
p863
S'standard'
p864
ssS'bootloader'
p865
(dp866
S'extended_fuses'
p867
S'0x00'
p868
sS'high_fuses'
p869
S'0xdd'
p870
sS'low_fuses'
p871
S'0xe2'
p872
sS'lock_bits'
p873
S'0x0F'
p874
sS'file'
p875
S'LilyPadBOOT_168.hex'
p876
sS'path'
p877
S'lilypad'
p878
sS'unlock_bits'
p879
S'0x3F'
p880
ssS'upload'
p881
(dp882
S'speed'
p883
S'19200'
p884
sS'maximum_size'
p885
S'14336'
p886
sS'protocol'
p887
S'arduino'
p888
ssS'name'
p889
S'LilyPad Arduino w/ ATmega168'
p890
sg142
S'/usr/share/arduino/hardware/arduino'
p891
saa(lp892
S'pro5v328'
p893
a(dp894
S'build'
p895
(dp896
S'core'
p897
S'arduino'
p898
sS'mcu'
p899
S'atmega328p'
p900
sS'f_cpu'
p901
S'16000000L'
p902
sS'variant'
p903
S'standard'
p904
ssS'bootloader'
p905
(dp906
S'extended_fuses'
p907
S'0x05'
p908
sS'high_fuses'
p909
S'0xDA'
p910
sS'low_fuses'
p911
S'0xFF'
p912
sS'lock_bits'
p913
S'0x0F'
p914
sS'file'
p915
S'ATmegaBOOT_168_atmega328.hex'
p916
sS'path'
p917
S'atmega'
p918
sS'unlock_bits'
p919
S'0x3F'
p920
ssS'upload'
p921
(dp922
S'speed'
p923
S'57600'
p924
sS'maximum_size'
p925
S'30720'
p926
sS'protocol'
p927
S'arduino'
p928
ssS'name'
p929
S'Arduino Pro or Pro Mini (5V, 16 MHz) w/ ATmega328'
p930
sg142
S'/usr/share/arduino/hardware/arduino'
p931
saa(lp932
S'pro5v'
p933
a(dp934
S'build'
p935
(dp936
S'core'
p937
S'arduino'
p938
sS'mcu'
p939
S'atmega168'
p940
sS'f_cpu'
p941
S'16000000L'
p942
sS'variant'
p943
S'standard'
p944
ssS'bootloader'
p945
(dp946
S'extended_fuses'
p947
S'0x00'
p948
sS'high_fuses'
p949
S'0xdd'
p950
sS'low_fuses'
p951
S'0xff'
p952
sS'lock_bits'
p953
S'0x0F'
p954
sS'file'
p955
S'ATmegaBOOT_168_diecimila.hex'
p956
sS'path'
p957
S'atmega'
p958
sS'unlock_bits'
p959
S'0x3F'
p960
ssS'upload'
p961
(dp962
S'speed'
p963
S'19200'
p964
sS'maximum_size'
p965
S'14336'
p966
sS'protocol'
p967
S'arduino'
p968
ssS'name'
p969
S'Arduino Pro or Pro Mini (5V, 16 MHz) w/ ATmega168'
p970
sg142
S'/usr/share/arduino/hardware/arduino'
p971
saa(lp972
S'pro328'
p973
a(dp974
S'build'
p975
(dp976
S'core'
p977
S'arduino'
p978
sS'mcu'
p979
S'atmega328p'
p980
sS'f_cpu'
p981
S'8000000L'
p982
sS'variant'
p983
S'standard'
p984
ssS'bootloader'
p985
(dp986
S'extended_fuses'
p987
S'0x05'
p988
sS'high_fuses'
p989
S'0xDA'
p990
sS'low_fuses'
p991
S'0xFF'
p992
sS'lock_bits'
p993
S'0x0F'
p994
sS'file'
p995
S'ATmegaBOOT_168_atmega328_pro_8MHz.hex'
p996
sS'path'
p997
S'atmega'
p998
sS'unlock_bits'
p999
S'0x3F'
p1000
ssS'upload'
p1001
(dp1002
S'speed'
p1003
S'57600'
p1004
sS'maximum_size'
p1005
S'30720'
p1006
sS'protocol'
p1007
S'arduino'
p1008
ssS'name'
p1009
S'Arduino Pro or Pro Mini (3.3V, 8 MHz) w/ ATmega328'
p1010
sg142
S'/usr/share/arduino/hardware/arduino'
p1011
saa(lp1012
S'pro'
p1013
a(dp1014
S'build'
p1015
(dp1016
S'core'
p1017
S'arduino'
p1018
sS'mcu'
p1019
S'atmega168'
p1020
sS'f_cpu'
p1021
S'8000000L'
p1022
sS'variant'
p1023
S'standard'
p1024
ssS'bootloader'
p1025
(dp1026
S'extended_fuses'
p1027
S'0x00'
p1028
sS'high_fuses'
p1029
S'0xdd'
p1030
sS'low_fuses'
p1031
S'0xc6'
p1032
sS'lock_bits'
p1033
S'0x0F'
p1034
sS'file'
p1035
S'ATmegaBOOT_168_pro_8MHz.hex'
p1036
sS'path'
p1037
S'atmega'
p1038
sS'unlock_bits'
p1039
S'0x3F'
p1040
ssS'upload'
p1041
(dp1042
S'speed'
p1043
S'19200'
p1044
sS'maximum_size'
p1045
S'14336'
p1046
sS'protocol'
p1047
S'arduino'
p1048
ssS'name'
p1049
S'Arduino Pro or Pro Mini (3.3V, 8 MHz) w/ ATmega168'
p1050
sg142
S'/usr/share/arduino/hardware/arduino'
p1051
saa(lp1052
S'atmega168'
p1053
a(dp1054
S'build'
p1055
(dp1056
S'core'
p1057
S'arduino'
p1058
sS'mcu'
p1059
S'atmega168'
p1060
sS'f_cpu'
p1061
S'16000000L'
p1062
sS'variant'
p1063
S'standard'
p1064
ssS'bootloader'
p1065
(dp1066
S'extended_fuses'
p1067
S'0x00'
p1068
sS'high_fuses'
p1069
S'0xdd'
p1070
sS'low_fuses'
p1071
S'0xff'
p1072
sS'lock_bits'
p1073
S'0x0F'
p1074
sS'file'
p1075
S'ATmegaBOOT_168_ng.hex'
p1076
sS'path'
p1077
S'atmega'
p1078
sS'unlock_bits'
p1079
S'0x3F'
p1080
ssS'upload'
p1081
(dp1082
S'speed'
p1083
S'19200'
p1084
sS'maximum_size'
p1085
S'14336'
p1086
sS'protocol'
p1087
S'arduino'
p1088
ssS'name'
p1089
S'Arduino NG or older w/ ATmega168'
p1090
sg142
S'/usr/share/arduino/hardware/arduino'
p1091
saa(lp1092
S'atmega8'
p1093
a(dp1094
S'build'
p1095
(dp1096
S'core'
p1097
S'arduino'
p1098
sS'mcu'
p1099
S'atmega8'
p1100
sS'f_cpu'
p1101
S'16000000L'
p1102
sS'variant'
p1103
S'standard'
p1104
ssS'bootloader'
p1105
(dp1106
S'high_fuses'
p1107
S'0xca'
p1108
sS'low_fuses'
p1109
S'0xdf'
p1110
sS'lock_bits'
p1111
S'0x0F'
p1112
sS'file'
p1113
S'ATmegaBOOT-prod-firmware-2009-11-07.hex'
p1114
sS'path'
p1115
S'atmega8'
p1116
sS'unlock_bits'
p1117
S'0x3F'
p1118
ssS'upload'
p1119
(dp1120
S'speed'
p1121
S'19200'
p1122
sS'maximum_size'
p1123
S'7168'
p1124
sS'protocol'
p1125
S'arduino'
p1126
ssS'name'
p1127
S'Arduino NG or older w/ ATmega8'
p1128
sg142
S'/usr/share/arduino/hardware/arduino'
p1129
saa(lp1130
S'robotControl'
p1131
a(dp1132
S'build'
p1133
(dp1134
S'core'
p1135
S'robot'
p1136
sS'f_cpu'
p1137
S'16000000L'
p1138
sS'vid'
p1139
S'0x2341'
p1140
sS'pid'
p1141
S'0x8038'
p1142
sS'variant'
p1143
S'robot_control'
p1144
sS'mcu'
p1145
S'atmega32u4'
p1146
ssS'bootloader'
p1147
(dp1148
S'extended_fuses'
p1149
S'0xcb'
p1150
sS'high_fuses'
p1151
S'0xd8'
p1152
sS'low_fuses'
p1153
S'0xff'
p1154
sS'lock_bits'
p1155
S'0x2F'
p1156
sS'file'
p1157
S'Caterina-Robot-Control.hex'
p1158
sS'path'
p1159
S'caterina-Arduino_Robot'
p1160
sS'unlock_bits'
p1161
S'0x3F'
p1162
ssS'upload'
p1163
(dp1164
S'speed'
p1165
S'57600'
p1166
sS'maximum_size'
p1167
S'28672'
p1168
sS'protocol'
p1169
S'avr109'
p1170
sS'disable_flushing'
p1171
S'true'
p1172
ssS'name'
p1173
S'Arduino Robot Control'
p1174
sg142
S'/usr/share/arduino/hardware/arduino'
p1175
saa(lp1176
S'robotMotor'
p1177
a(dp1178
S'build'
p1179
(dp1180
S'core'
p1181
S'robot'
p1182
sS'f_cpu'
p1183
S'16000000L'
p1184
sS'vid'
p1185
S'0x2341'
p1186
sS'pid'
p1187
S'0x8039'
p1188
sS'variant'
p1189
S'robot_motor'
p1190
sS'mcu'
p1191
S'atmega32u4'
p1192
ssS'bootloader'
p1193
(dp1194
S'extended_fuses'
p1195
S'0xcb'
p1196
sS'high_fuses'
p1197
S'0xd8'
p1198
sS'low_fuses'
p1199
S'0xff'
p1200
sS'lock_bits'
p1201
S'0x2F'
p1202
sS'file'
p1203
S'Caterina-Robot-Motor.hex'
p1204
sS'path'
p1205
S'caterina-Arduino_Robot'
p1206
sS'unlock_bits'
p1207
S'0x3F'
p1208
ssS'upload'
p1209
(dp1210
S'speed'
p1211
S'57600'
p1212
sS'maximum_size'
p1213
S'28672'
p1214
sS'protocol'
p1215
S'avr109'
p1216
sS'disable_flushing'
p1217
S'true'
p1218
ssS'name'
p1219
S'Arduino Robot Motor'
p1220
sg142
S'/usr/share/arduino/hardware/arduino'
p1221
saatp1222
Rp1223
(dp1224
S'default'
p1225
S'uno'
p1226
sbtp1227
a(S'cxx'
p1228
S'/usr/share/arduino/hardware/tools/avr/bin/avr-g++'
p1229
tp1230
a.